(dp0
S'METTS MARK'
p1
(dp2
S'salary'
p3
F0.5850113728434327
sS'to_messages'
p4
F-0.2082852633744348
sS'deferral_payments'
p5
F-0.32280156308388
sS'total_payments'
p6
F-0.13685639722141515
sS'loan_advances'
p7
F-0.08556846643359434
sS'bonus'
p8
F-0.30467160009234656
sS'restricted_stock_deferred'
p9
F-0.1904108853781678
sS'total_stock_value'
p10
F-0.3822250466227329
sS'shared_receipt_with_poi'
p11
F-0.013735130892446141
sS'long_term_incentive'
p12
F-0.14919850578588456
sS'exercised_stock_options'
p13
F-0.20328460943412696
sS'from_messages'
p14
F-0.23593633099508027
sS'other'
p15
F-0.26106289172338637
sS'from_poi_to_this_person'
p16
F-0.013853037922057521
sS'from_this_person_to_poi'
p17
F-0.29839192004899334
sS'poi'
p18
I00
sS'has_email'
p19
F0.5369248441712194
sS'deferred_income'
p20
F0.31079801176780747
sS'expenses'
p21
F1.2849618673407717
sS'restricted_stock'
p22
F-0.1595227640050671
sS'director_fees'
p23
F-0.31897230514566277
ssS'BAXTER JOHN C'
p24
(dp25
g3
F-0.10572939692199905
sg4
F-0.5457262678594518
sg5
F1.4762765118093237
sg6
F0.3800949836611563
sg7
F-0.08556846643359434
sg8
F0.23162061259549951
sg9
F-0.1904108853781678
sg10
F1.2429147583400162
sg11
F-0.6484995308276384
sg12
F1.6138109963242975
sg13
F0.8866603537484695
sg14
F-0.24766727858776305
sg15
F2.0895601565603945
sg16
F-0.5259442492721301
sg17
F-0.3109308693781165
sg18
I00
sg19
F-1.8624580532189177
sg20
F-1.955593884501099
sg21
F-0.7290669264322416
sg22
F1.516849956857372
sg23
F-0.31897230514566277
ssS'ELLIOTT STEVEN'
p26
(dp27
g3
F-0.7787967333366241
sg4
F-0.5457262678594518
sg5
F-0.32280156308388
sg6
F-0.23296571707749347
sg7
F-0.08556846643359434
sg8
F-0.5281266887122824
sg9
F-0.1904108853781678
sg10
F0.6043138245775077
sg11
F-0.6484995308276384
sg12
F-0.14919850578588456
sg13
F0.5007500771724112
sg14
F-0.24766727858776305
sg15
F-0.251141614241983
sg16
F-0.5259442492721301
sg17
F-0.3109308693781165
sg18
I00
sg19
F0.5369248441712194
sg20
F-0.31485573535719474
sg21
F0.9033097245286603
sg22
F0.4412625198250254
sg23
F-0.31897230514566277
ssS'CORDES WILLIAM R'
p28
(dp29
g3
F-0.025243531535493358
sg4
F-0.2276318809649091
sg5
F-0.32280156308388
sg6
F-0.25688581321559156
sg7
F-0.08556846643359434
sg8
F-0.30467160009234656
sg9
F-0.1904108853781678
sg10
F-0.3088664248301184
sg11
F-0.6157797163979893
sg12
F-0.14919850578588456
sg13
F-0.4129346462137824
sg14
F-0.24766727858776305
sg15
F-0.2621238963555657
sg16
F-0.39118340418000574
sg17
F-0.3109308693781165
sg18
I00
sg19
F0.5369248441712194
sg20
F0.31079801176780747
sg21
F-0.6002741730885215
sg22
F-0.2587410634890011
sg23
F-0.31897230514566277
ssS'HANNON KEVIN P'
p30
(dp31
g3
F-0.2723776245059032
sg4
F-0.10120398461785605
sg5
F-0.32280156308388
sg6
F-0.22426524945341517
sg7
F-0.08556846643359434
sg8
F0.4997667189394226
sg9
F-0.1904108853781678
sg10
F0.5577413161612909
sg11
F0.29757053210964374
sg12
F1.6667132611290514
sg13
F0.6403643616079046
sg14
F-0.2338661637728421
sg15
F-0.2525660129606837
sg16
F-0.09470954497733214
sg17
F-0.047612933466530526
sg18
I01
sg19
F0.5369248441712194
sg20
F-4.837934900255819
sg21
F-0.1755295358381087
sg22
F-0.02571758052072288
sg23
F-0.31897230514566277
ssS'MORDAUNT KRISTINA M'
p32
(dp33
g3
F-0.10579239133790291
sg4
F-0.5457262678594518
sg5
F-0.32280156308388
sg6
F-0.18584422320022478
sg7
F-0.08556846643359434
sg8
F-0.550472197574276
sg9
F-0.1904108853781678
sg10
F-0.44318716011786025
sg11
F-0.6484995308276384
sg12
F-0.14919850578588456
sg13
F-0.20328460943412696
sg14
F-0.24766727858776305
sg15
F-0.2613537838267089
sg16
F-0.5259442492721301
sg17
F-0.3109308693781165
sg18
I00
sg19
F0.5369248441712194
sg20
F0.31079801176780747
sg21
F-0.15180200374862773
sg22
F-0.347523635085868
sg23
F-0.31897230514566277
ssS'MEYER ROCKFORD G'
p34
(dp35
g3
F-0.025243531535493358
sg4
F-0.4669900334796145
sg5
F2.187150373426353
sg6
F-0.0479489847758263
sg7
F-0.08556846643359434
sg8
F-0.30467160009234656
sg9
F-0.1904108853781678
sg10
F-0.32219237579043974
sg11
F-0.6494343826684856
sg12
F-0.14919850578588456
sg13
F-0.4470722494474218
sg14
F-0.2366263867358263
sg15
F-0.2621238963555657
sg16
F-0.5259442492721301
sg17
F-0.3109308693781165
sg18
I00
sg19
F0.5369248441712194
sg20
F0.31079801176780747
sg21
F-0.6002741730885215
sg22
F-0.2207721289332855
sg23
F-0.31897230514566277
ssS'MCMAHON JEFFREY'
p36
(dp37
g3
F0.6176284815225455
sg4
F0.4881929698826403
sg5
F-0.32280156308388
sg6
F0.2066020719985772
sg7
F-0.08556846643359434
sg8
F1.4829691088671406
sg9
F-0.1904108853781678
sg10
F-0.20773509785004343
sg11
F1.4128487782402543
sg12
F0.09080647125183522
sg13
F-0.31545382244615877
sg14
F-0.22282527192090537
sg15
F0.000309410220300204
sg16
F0.2556686522621912
sg17
F0.015081813179085184
sg18
I00
sg19
F0.5369248441712194
sg20
F0.31079801176780747
sg21
F2.3225021341626215
sg22
F-0.17263407632170044
sg23
F-0.31897230514566277
ssS'HORTON STANLEY C'
p38
(dp39
g3
F-0.025243531535493358
sg4
F0.48594336318607356
sg5
F3.838769043859704
sg6
F0.0971737117650798
sg7
F-0.08556846643359434
sg8
F-0.30467160009234656
sg9
F-0.1904108853781678
sg10
F0.6978753987991544
sg11
F0.3340297539026813
sg12
F-0.14919850578588456
sg13
F0.5697804192104897
sg14
F0.48448186234379276
sg15
F-0.2621238963555657
sg16
F0.0670034691332171
sg17
F-0.12284662944126937
sg18
I00
sg19
F0.5369248441712194
sg20
F0.31079801176780747
sg21
F-0.6002741730885215
sg22
F0.5699182392663493
sg23
F-0.31897230514566277
ssS'PIPER GREGORY F'
p40
(dp41
g3
F-0.5957629582381699
sg4
F-0.01436916613037835
sg5
F1.2630718677029886
sg6
F-0.06045277674131109
sg7
F-0.08556846643359434
sg8
F-0.48343567098829526
sg9
F0.7255718381289716
sg10
F-0.33442893123112843
sg11
F0.02365894274143853
sg12
F-0.14919850578588456
sg13
F-0.36369023576744414
sg14
F-0.1027555730310932
sg15
F-0.2619134637701835
sg16
F0.2960969057898285
sg17
F0.2909386984197943
sg18
I00
sg19
F0.5369248441712194
sg20
F0.29692212602358053
sg21
F0.04303520816897963
sg22
F-0.24714852852537025
sg23
F-0.31897230514566277
ssS'HUMPHREY GENE E'
p42
(dp43
g3
F-1.06029078049282
sg4
F-0.5137818527682035
sg5
F3.6234388124215102
sg6
F0.09359706514741875
sg7
F-0.08556846643359434
sg8
F-0.30467160009234656
sg9
F-0.1904108853781678
sg10
F-0.10737390825842033
sg11
F-0.5587537541063152
sg12
F-0.14919850578588456
sg13
F-0.061360511227260314
sg14
F-0.24421699988403284
sg15
F-0.2621238963555657
sg16
F-0.39118340418000574
sg17
F-0.09776873078302309
sg18
I00
sg19
F0.5369248441712194
sg20
F0.31079801176780747
sg21
F-0.8794786364907901
sg22
F-0.3887048686189728
sg23
F-0.31897230514566277
ssS'UMANOFF ADAM S'
p44
(dp45
g3
F0.04466627135870777
sg4
F-0.5214305155365305
sg5
F-0.32280156308388
sg6
F-0.12909689652737835
sg7
F-0.08556846643359434
sg8
F-0.135963008184295
sg9
F-0.1904108853781678
sg10
F-0.4565407952264736
sg11
F-0.6316721976923904
sg12
F-0.14919850578588456
sg13
F-0.20328460943412696
sg14
F-0.24352694414328677
sg15
F-0.2621238963555657
sg16
F-0.36423123516158085
sg17
F-0.3109308693781165
sg18
I00
sg19
F0.5369248441712194
sg20
F0.31079801176780747
sg21
F0.28697556616757625
sg22
F-0.3887048686189728
sg23
F-0.31897230514566277
ssS'BLACHMAN JEREMY M'
p46
(dp47
g3
F-0.2356098837566803
sg4
F0.542183530600243
sg5
F-0.32280156308388
sg6
F-0.029112913854241015
sg7
F-0.08556846643359434
sg8
F-0.0812165114724107
sg9
F-0.1904108853781678
sg10
F-0.3224382952129872
sg11
F1.5044642586432717
sg12
F0.3248420849686154
sg13
F-0.38847562615392917
sg14
F-0.24628716710627097
sg15
F-0.2623608540567524
sg16
F-0.1890421365418192
sg17
F-0.2858529707198702
sg18
I00
sg19
F0.5369248441712194
sg20
F0.31079801176780747
sg21
F1.040391360379635
sg22
F-0.3572439099989533
sg23
F-0.31897230514566277
ssS'SUNDE MARTIN'
p48
(dp49
g3
F-0.17303543062550705
sg4
F0.6195700009621403
sg5
F-0.32280156308388
sg6
F-0.08222401328079106
sg7
F-0.08556846643359434
sg8
F-0.21528956464437224
sg9
F-0.1904108853781678
sg10
F-0.3637919369371431
sg11
F1.7278938486057327
sg12
F-0.28244706790926855
sg13
F-0.20328460943412696
sg14
F-0.22972582932836583
sg15
F-0.16435055115918817
sg16
F-0.027329122431269955
sg17
F-0.14792452809951565
sg18
I00
sg19
F0.5369248441712194
sg20
F0.31079801176780747
sg21
F-0.6002741730885215
sg22
F-0.10267695471573171
sg23
F-0.31897230514566277
ssS'GIBBS DANA R'
p50
(dp51
g3
F-0.025243531535493358
sg4
F-0.49533507785635594
sg5
F0.45835178137422583
sg6
F-0.1476312203942621
sg7
F-0.08556846643359434
sg8
F-0.30467160009234656
sg9
F-0.1904108853781678
sg10
F-0.11781504145022716
sg11
F-0.6484995308276384
sg12
F-0.3072934960006343
sg13
F-0.0752631542097314
sg14
F-0.24766727858776305
sg15
F-0.2621238963555657
sg16
F-0.5259442492721301
sg17
F-0.3109308693781165
sg18
I00
sg19
F0.5369248441712194
sg20
F0.31079801176780747
sg21
F-0.6002741730885215
sg22
F-0.3887048686189728
sg23
F-0.31897230514566277
ssS'LOWRY CHARLES P'
p52
(dp53
g3
F-0.025243531535493358
sg4
F-0.5457262678594518
sg5
F-0.32280156308388
sg6
F-0.25688581321559156
sg7
F-0.08556846643359434
sg8
F-0.30467160009234656
sg9
F0.8956736271054642
sg10
F-0.41668565921337725
sg11
F-0.6484995308276384
sg12
F-0.14919850578588456
sg13
F-0.47321722877054245
sg14
F-0.24766727858776305
sg15
F-0.2621238963555657
sg16
F-0.5259442492721301
sg17
F-0.3109308693781165
sg18
I00
sg19
F-1.8624580532189177
sg20
F0.31079801176780747
sg21
F-0.6002741730885215
sg22
F-0.37489557775549615
sg23
F-0.31897230514566277
ssS'COLWELL WESLEY'
p54
(dp55
g3
F0.044337300520098696
sg4
F0.21958993031256677
sg5
F-0.15539226057289496
sg6
F-0.08840988443028291
sg7
F-0.08556846643359434
sg8
F0.23162061259549951
sg9
F-0.1904108853781678
sg10
F-0.36390170215668705
sg11
F0.3882511606718141
sg12
F-0.14919850578588456
sg13
F-0.20328460943412696
sg14
F-0.22834571784687374
sg15
F-0.1726458390417768
sg16
F2.7083160329388547
sg17
F-0.17300242675776195
sg18
I01
sg19
F0.5369248441712194
sg20
F0.11253919639769495
sg21
F-0.6002741730885215
sg22
F-0.10301545933287033
sg23
F-0.31897230514566277
ssS'MULLER MARK S'
p56
(dp57
g3
F-0.21385581213121202
sg4
F-0.5101824820536967
sg5
F0.8936519948067168
sg6
F0.10511138906391601
sg7
F-0.08556846643359434
sg8
F0.14223857714752516
sg9
F-0.1904108853781678
sg10
F-0.24756254971484773
sg11
F-0.5634280133105508
sg12
F1.8521924705979484
sg13
F-0.3257437571696989
sg14
F-0.24490705562477888
sg15
F-0.2617640389511516
sg16
F-0.36423123516158085
sg17
F-0.3109308693781165
sg18
I00
sg19
F0.5369248441712194
sg20
F-0.8448319782110111
sg21
F-0.6002741730885215
sg22
F-0.27162570752218174
sg23
F-0.31897230514566277
ssS'JACKSON CHARLENE R'
p58
(dp59
g3
F0.04444929059281668
sg4
F-0.45529207865746724
sg5
F-0.32280156308388
sg6
F-0.19458889580683897
sg7
F-0.08556846643359434
sg8
F-0.6175087241602568
sg9
F-0.1904108853781678
sg10
F-0.3594507063146213
sg11
F-0.5606234577880095
sg12
F-0.14919850578588456
sg13
F-0.5135591017338966
sg14
F-0.217304825994937
sg15
F-0.2604483932072492
sg16
F-0.1890421365418192
sg17
F-0.07269083212477681
sg18
I00
sg19
F0.5369248441712194
sg20
F0.31079801176780747
sg21
F-0.7537639184640915
sg22
F-0.1816853303100575
sg23
F-0.31897230514566277
ssS'WESTFAHL RICHARD K'
p60
(dp61
g3
F-1.5291092224084781
sg4
F-0.5457262678594518
sg5
F-0.32280156308388
sg6
F-0.17073844230107363
sg7
F-0.08556846643359434
sg8
F-0.30467160009234656
sg9
F-0.1904108853781678
sg10
F-0.4146255376518785
sg11
F-0.6484995308276384
sg12
F-0.6588604561343337
sg13
F-0.20328460943412696
sg14
F-0.24766727858776305
sg15
F0.0920659749816942
sg16
F-0.5259442492721301
sg17
F-0.3109308693781165
sg18
I00
sg19
F0.5369248441712194
sg20
F0.33444346689417526
sg21
F0.2566314699714269
sg22
F-0.2594425369212721
sg23
F-0.31897230514566277
ssS'WALTERS GARETH W'
p62
(dp63
g3
F-0.025243531535493358
sg4
F-0.5457262678594518
sg5
F-0.1219194067966804
sg6
F-0.24702030123081667
sg7
F-0.08556846643359434
sg8
F-0.30467160009234656
sg9
F-0.1904108853781678
sg10
F-0.3101382766955121
sg11
F-0.6484995308276384
sg12
F-0.14919850578588456
sg13
F-0.33134659148904216
sg14
F-0.24766727858776305
sg15
F-0.2621238963555657
sg16
F-0.5259442492721301
sg17
F-0.3109308693781165
sg18
I00
sg19
F-1.8624580532189177
sg20
F0.31079801176780747
sg21
F-0.18168560647215176
sg22
F-0.3887048686189728
sg23
F-0.31897230514566277
ssS'WALLS JR ROBERT H'
p64
(dp65
g3
F0.5241377689416639
sg4
F-0.2694745655210512
sg5
F-0.32280156308388
sg6
F-0.053539275751407475
sg7
F-0.08556846643359434
sg8
F-0.0812165114724107
sg9
F-0.1904108853781678
sg10
F0.47807767006906376
sg11
F-0.46900797738499206
sg12
F-0.17256156503597475
sg13
F0.3835240642118143
sg14
F-0.15519980932779276
sg15
F-0.26259958009899276
sg16
F-0.29685081261551866
sg17
F-0.3109308693781165
sg18
I00
sg19
F0.5369248441712194
sg20
F0.31079801176780747
sg21
F0.23399458031711104
sg22
F0.3234659086768653
sg23
F-0.31897230514566277
ssS'KITCHEN LOUISE'
p66
(dp67
g3
F-0.07535208969724605
sg4
F3.1652249387971083
sg5
F-0.32280156308388
sg6
F0.13553153959055264
sg7
F-0.08556846643359434
sg8
F1.9298792861070122
sg9
F-0.1904108853781678
sg10
F-0.38836396603259327
sg11
F2.7599702809009496
sg12
F-0.14919850578588456
sg13
F-0.5359827264013741
sg14
F0.9364683725324535
sg15
F-0.1795556317088446
sg16
F2.8565529625401913
sg17
F2.121625300471773
sg18
I00
sg19
F0.5369248441712194
sg20
F0.31079801176780747
sg21
F-0.8605741676145948
sg22
F-0.2189163447711848
sg23
F-0.31897230514566277
ssS'CHAN RONNIE'
p68
(dp69
g3
F-0.025243531535493358
sg4
F-0.5457262678594518
sg5
F-0.32280156308388
sg6
F-0.25688581321559156
sg7
F-0.08556846643359434
sg8
F-0.30467160009234656
sg9
F0.9762650237258477
sg10
F-0.4565407952264736
sg11
F-0.6484995308276384
sg12
F-0.14919850578588456
sg13
F-0.20328460943412696
sg14
F-0.24766727858776305
sg15
F-0.2621238963555657
sg16
F-0.5259442492721301
sg17
F-0.3109308693781165
sg18
I00
sg19
F-1.8624580532189177
sg20
F0.18793489479288364
sg21
F-0.6002741730885215
sg22
F-0.4354200035921433
sg23
F2.8270487811287777
ssS'BELFER ROBERT'
p70
(dp71
g3
F-0.025243531535493358
sg4
F-0.5457262678594518
sg5
F-0.32280156308388
sg6
F-0.24531428285110668
sg7
F-0.08556846643359434
sg8
F-0.30467160009234656
sg9
F1.027157680296882
sg10
F-0.4840824753869589
sg11
F-0.6484995308276384
sg12
F-0.14919850578588456
sg13
F-0.5527446666179558
sg14
F-0.24766727858776305
sg15
F-0.2621238963555657
sg16
F-0.5259442492721301
sg17
F-0.3109308693781165
sg18
I00
sg19
F-1.8624580532189177
sg20
F0.31079801176780747
sg21
F-0.6002741730885215
sg22
F-0.3887048686189728
sg23
F-0.31897230514566277
ssS'SHANKMAN JEFFREY A'
p72
(dp73
g3
F0.15330364127469653
sg4
F0.8778248497280067
sg5
F-0.32280156308388
sg6
F0.08664162029940563
sg7
F-0.08556846643359434
sg8
F0.9466768961792944
sg9
F-0.1904108853781678
sg10
F-0.14149065458606874
sg11
F0.9472925614983899
sg12
F-0.14919850578588456
sg13
F-0.24262538345634654
sg14
F1.5940914934634363
sg15
F-0.2615483013426084
sg16
F0.7408076945938389
sg17
F0.7298019249391042
sg18
I00
sg19
F0.5369248441712194
sg20
F0.31079801176780747
sg21
F3.337308565335919
sg22
F-0.13701819819751038
sg23
F-0.31897230514566277
ssS'WODRASKA JOHN'
p74
(dp75
g3
F-0.025243531535493358
sg4
F-0.5457262678594518
sg5
F-0.32280156308388
sg6
F-0.235469007929948
sg7
F-0.08556846643359434
sg8
F-0.30467160009234656
sg9
F-0.1904108853781678
sg10
F-0.4565407952264736
sg11
F-0.6484995308276384
sg12
F-0.14919850578588456
sg13
F-0.20328460943412696
sg14
F-0.24766727858776305
sg15
F-0.09497764745467047
sg16
F-0.5259442492721301
sg17
F-0.3109308693781165
sg18
I00
sg19
F0.5369248441712194
sg20
F0.31079801176780747
sg21
F-0.6002741730885215
sg22
F-0.3887048686189728
sg23
F-0.31897230514566277
ssS'BERGSIEKER RICHARD P'
p76
(dp77
g3
F-0.6599402692851194
sg4
F-0.39905191124329775
sg5
F-0.32280156308388
sg6
F-0.18693770297282616
sg7
F-0.08556846643359434
sg8
F-0.6175087241602568
sg9
F-0.1904108853781678
sg10
F-0.3702144974452939
sg11
F-0.4521806442497439
sg12
F-0.7886398491934442
sg13
F-0.20328460943412696
sg14
F-0.21523465877269884
sg15
F0.11521886439690049
sg16
F-0.47203991123528033
sg17
F-0.3109308693781165
sg18
I00
sg19
F0.5369248441712194
sg20
F-0.45653530605943937
sg21
F0.43367909194656334
sg22
F-0.12248346897311568
sg23
F-0.31897230514566277
ssS'URQUHART JOHN A'
p78
(dp79
g3
F-0.025243531535493358
sg4
F-0.5457262678594518
sg5
F-0.32280156308388
sg6
F-0.23105156219433443
sg7
F-0.08556846643359434
sg8
F-0.30467160009234656
sg9
F-0.1904108853781678
sg10
F-0.4565407952264736
sg11
F-0.6484995308276384
sg12
F-0.14919850578588456
sg13
F-0.20328460943412696
sg14
F-0.24766727858776305
sg15
F-0.2621238963555657
sg16
F-0.5259442492721301
sg17
F-0.3109308693781165
sg18
I00
sg19
F-1.8624580532189177
sg20
F0.29137210476046904
sg21
F4.541305104262524
sg22
F-0.3887048686189728
sg23
F0.7806971142296931
ssS'BIBI PHILIPPE A'
p80
(dp81
g3
F-0.4800352168432239
sg4
F0.15165180807625
sg5
F-0.32280156308388
sg6
F-0.02540941815625958
sg7
F-0.08556846643359434
sg8
F0.05285654169955082
sg9
F-0.1904108853781678
sg10
F-0.178438307446084
sg11
F0.578960936204626
sg12
F-0.4648433310767125
sg13
F-0.23748709871024726
sg14
F-0.22834571784687374
sg15
F0.11377943477924389
sg16
F-0.21599430556024407
sg17
F-0.21061927474513137
sg18
I00
sg19
F0.5369248441712194
sg20
F0.31079801176780747
sg21
F-0.06598056235041307
sg22
F-0.2628615334082416
sg23
F-0.31897230514566277
ssS'PIRO JIM'
p82
(dp83
g3
F-0.025243531535493358
sg4
F-0.5452763465201385
sg5
F-0.32280156308388
sg6
F-0.25688581321559156
sg7
F-0.08556846643359434
sg8
F-0.30467160009234656
sg9
F-0.1904108853781678
sg10
F-0.46928570286387006
sg11
F-0.6671965676445808
sg12
F-0.14919850578588456
sg13
F-0.20328460943412696
sg14
F-0.24490705562477888
sg15
F-0.2621238963555657
sg16
F-0.5259442492721301
sg17
F-0.29839192004899334
sg18
I00
sg19
F0.5369248441712194
sg20
F0.31079801176780747
sg21
F-0.6002741730885215
sg22
F-0.42800884940806405
sg23
F-0.31897230514566277
ssS'RIEKER PAULA H'
p84
(dp85
g3
F-0.23102529015478784
sg4
F0.02612375440782369
sg5
F0.08530348458216581
sg6
F-0.13264245268417657
sg7
F-0.08556846643359434
sg8
F-0.21528956464437224
sg9
F-0.1904108853781678
sg10
F-0.1662846425546674
sg11
F0.5060424926185508
sg12
F-0.14919850578588456
sg13
F-0.20094741849532816
sg14
F-0.19936337673553978
sg15
F-0.26087721591275503
sg16
F-0.054281291449694825
sg17
F0.2909386984197943
sg18
I01
sg19
F0.5369248441712194
sg20
F0.18591004455107638
sg21
F-0.19414316673159326
sg22
F-0.3100090356357514
sg23
F-0.31897230514566277
ssS'WHALEY DAVID A'
p86
(dp87
g3
F-0.025243531535493358
sg4
F-0.5457262678594518
sg5
F-0.32280156308388
sg6
F-0.25688581321559156
sg7
F-0.08556846643359434
sg8
F-0.30467160009234656
sg9
F-0.1904108853781678
sg10
F-0.4609620022773947
sg11
F-0.6484995308276384
sg12
F-0.14919850578588456
sg13
F-0.5321723420595361
sg14
F-0.24766727858776305
sg15
F-0.2621238963555657
sg16
F-0.5259442492721301
sg17
F-0.3109308693781165
sg18
I00
sg19
F-1.8624580532189177
sg20
F0.31079801176780747
sg21
F-0.6002741730885215
sg22
F-0.3887048686189728
sg23
F-0.31897230514566277
ssS'BECK SALLY W'
p88
(dp89
g3
F-0.3561112020012304
sg4
F2.719802812876886
sg5
F-0.32280156308388
sg6
F-0.14734337925478289
sg7
F-0.08556846643359434
sg8
F-0.21528956464437224
sg9
F-0.1904108853781678
sg10
F-0.4565407952264736
sg11
F1.7970728848284192
sg12
F-0.14919850578588456
sg13
F-0.20328460943412696
sg14
F2.740964134583366
sg15
F-0.26210090792186846
sg16
F1.4146119200544607
sg17
F4.529103571663416
sg18
I00
sg19
F0.5369248441712194
sg20
F0.31079801176780747
sg21
F-0.09959658585205772
sg22
F-0.3887048686189728
sg23
F-0.31897230514566277
ssS'HAUG DAVID L'
p90
(dp91
g3
F-0.025243531535493358
sg4
F-0.3135668567737601
sg5
F-0.32280156308388
sg6
F-0.25684884383122014
sg7
F-0.08556846643359434
sg8
F-0.30467160009234656
sg9
F-0.1904108853781678
sg10
F-0.11797305155977708
sg11
F-0.22968590612813014
sg12
F-0.14919850578588456
sg13
F-0.20328460943412696
sg14
F-0.24283688840254072
sg15
F-0.2621238963555657
sg16
F-0.47203991123528033
sg17
F-0.2231582240742545
sg18
I00
sg19
F0.5369248441712194
sg20
F0.31079801176780747
sg21
F-0.9890033734799265
sg22
F0.655403136827522
sg23
F-0.31897230514566277
ssS'ECHOLS JOHN B'
p92
(dp93
g3
F-0.6996757469613688
sg4
F-0.5457262678594518
sg5
F-0.32280156308388
sg6
F0.04748143247122891
sg7
F-0.08556846643359434
sg8
F-0.662199741884244
sg9
F-0.1904108853781678
sg10
F-0.3136008998748705
sg11
F-0.6484995308276384
sg12
F2.72243951169693
sg13
F-0.4238018727039803
sg14
F-0.24766727858776305
sg15
F-0.21505507836051083
sg16
F-0.5259442492721301
sg17
F-0.3109308693781165
sg18
I00
sg19
F0.5369248441712194
sg20
F0.31079801176780747
sg21
F-0.47870389631545046
sg22
F-0.24817252995568195
sg23
F-0.31897230514566277
ssS'MENDELSOHN JOHN'
p94
(dp95
g3
F-0.025243531535493358
sg4
F-0.5457262678594518
sg5
F-0.32280156308388
sg6
F-0.25688581321559156
sg7
F-0.08556846643359434
sg8
F-0.30467160009234656
sg9
F-0.1904108853781678
sg10
F-0.4565407952264736
sg11
F-0.6484995308276384
sg12
F-0.14919850578588456
sg13
F-0.20328460943412696
sg14
F-0.24766727858776305
sg15
F-0.2621238963555657
sg16
F-0.5259442492721301
sg17
F-0.3109308693781165
sg18
I00
sg19
F-1.8624580532189177
sg20
F0.1796656461902398
sg21
F-0.996928708508793
sg22
F-0.3887048686189728
sg23
F2.9906435906497033
ssS'HICKERSON GARY J'
p96
(dp97
g3
F-0.49289307706715735
sg4
F0.022524383693316843
sg5
F-0.32280156308388
sg6
F-0.021542556218471592
sg7
F-0.08556846643359434
sg8
F0.6785307898353713
sg9
F-0.1904108853781678
sg10
F-0.40553250915497147
sg11
F0.17136553359528298
sg12
F-0.9783794717053135
sg13
F-0.20328460943412696
sg14
F-0.23731644247657235
sg15
F-0.2608895943001304
sg16
F0.013099131096367352
sg17
F-0.29839192004899334
sg18
I00
sg19
F0.5369248441712194
sg20
F0.31079801176780747
sg21
F1.395237935785244
sg22
F-0.2314005747882221
sg23
F-0.31897230514566277
ssS'CLINE KENNETH W'
p98
(dp99
g3
F-0.025243531535493358
sg4
F-0.5457262678594518
sg5
F-0.32280156308388
sg6
F-0.25688581321559156
sg7
F-0.08556846643359434
sg8
F-0.30467160009234656
sg9
F0.6836799480506317
sg10
F-0.44626188142992196
sg11
F-0.6484995308276384
sg12
F-0.14919850578588456
sg13
F-0.20328460943412696
sg14
F-0.24766727858776305
sg15
F-0.2621238963555657
sg16
F-0.5259442492721301
sg17
F-0.3109308693781165
sg18
I00
sg19
F-1.8624580532189177
sg20
F0.31079801176780747
sg21
F-0.6002741730885215
sg22
F-0.12106704183620967
sg23
F-0.31897230514566277
ssS'LEWIS RICHARD'
p100
(dp101
g3
F-0.025243531535493358
sg4
F-0.14304666917399816
sg5
F-0.32280156308388
sg6
F-0.25688581321559156
sg7
F-0.08556846643359434
sg8
F-0.30467160009234656
sg9
F-0.1904108853781678
sg10
F-0.3392555248745833
sg11
F0.02085438721889718
sg12
F-0.14919850578588456
sg13
F-0.3701169719285223
sg14
F-0.2380064982173184
sg15
F-0.2621238963555657
sg16
F-0.39118340418000574
sg17
F-0.3109308693781165
sg18
I00
sg19
F0.5369248441712194
sg20
F0.31079801176780747
sg21
F-0.6002741730885215
sg22
F-0.3887048686189728
sg23
F-0.31897230514566277
ssS'HAYES ROBERT E'
p102
(dp103
g3
F-0.025243531535493358
sg4
F-0.34461142918638166
sg5
F-0.18067414040563914
sg6
F-0.25600250495842297
sg7
F-0.08556846643359434
sg8
F-0.30467160009234656
sg9
F-0.1904108853781678
sg10
F-0.4524301039441148
sg11
F-0.6232585311247663
sg12
F-0.14919850578588456
sg13
F-0.20328460943412696
sg14
F-0.24766727858776305
sg15
F-0.2621238963555657
sg16
F-0.3103268971247311
sg17
F-0.3109308693781165
sg18
I00
sg19
F0.5369248441712194
sg20
F0.31079801176780747
sg21
F-0.6002741730885215
sg22
F-0.37602792063406604
sg23
F-0.31897230514566277
ssS'KOPPER MICHAEL J'
p104
(dp105
g3
F-0.40528184330397
sg4
F-0.5457262678594518
sg5
F-0.32280156308388
sg6
F0.04299174381019225
sg7
F-0.08556846643359434
sg8
F-0.1259075291963979
sg9
F-0.1904108853781678
sg10
F-0.31747166187203163
sg11
F-0.6484995308276384
sg12
F-0.066743363824243
sg13
F-0.20328460943412696
sg14
F-0.24766727858776305
sg15
F0.5397851729866143
sg16
F-0.5259442492721301
sg17
F-0.3109308693781165
sg18
I01
sg19
F0.5369248441712194
sg20
F0.31079801176780747
sg21
F1.862638810499892
sg22
F0.04016999663938017
sg23
F-0.31897230514566277
ssS'LEFF DANIEL P'
p106
(dp107
g3
F-0.05922551922585644
sg4
F0.6983062353419776
sg5
F-0.32280156308388
sg6
F0.04430500487703859
sg7
F-0.08556846643359434
sg8
F0.05285654169955082
sg9
F-0.1904108853781678
sg10
F-0.41857611418183477
sg11
F1.827922995576374
sg12
F1.2743177699044366
sg13
F-0.20328460943412696
sg14
F-0.21247443580971467
sg15
F-0.25987545070587237
sg16
F0.37695341284510314
sg17
F-0.1353855787703925
sg18
I00
sg19
F0.5369248441712194
sg20
F0.31079801176780747
sg21
F-0.6002741730885215
sg22
F-0.27162570752218174
sg23
F-0.31897230514566277
ssS'LAVORATO JOHN J'
p108
(dp109
g3
F0.39952781490427275
sg4
F2.694607217875338
sg5
F-0.32280156308388
sg6
F0.9217941452781052
sg7
F-0.08556846643359434
sg8
F6.309599023057755
sg9
F-0.1904108853781678
sg10
F0.35959388656041313
sg11
F3.033881870269155
sg12
F2.3816850799719296
sg13
F0.34309445497174995
sg14
F1.5278461423518157
sg15
F-0.2612291157824278
sg16
F6.589428371592036
sg17
F4.842577304891495
sg18
I00
sg19
F0.5369248441712194
sg20
F0.31079801176780747
sg21
F0.20008771883275567
sg22
F0.05171160612963616
sg23
F-0.31897230514566277
ssS'BERBERIAN DAVID'
p110
(dp111
g3
F-0.4593380515290316
sg4
F-0.5457262678594518
sg5
F-0.32280156308388
sg6
F-0.23107213842661456
sg7
F-0.08556846643359434
sg8
F-0.30467160009234656
sg9
F-0.1904108853781678
sg10
F-0.0732385439363065
sg11
F-0.6484995308276384
sg12
F-0.14919850578588456
sg13
F-0.20328460943412696
sg14
F-0.24766727858776305
sg15
F-0.2621238963555657
sg16
F-0.5259442492721301
sg17
F-0.3109308693781165
sg18
I00
sg19
F0.5369248441712194
sg20
F0.31079801176780747
sg21
F-0.7122952694292581
sg22
F-0.01765138495362612
sg23
F-0.31897230514566277
ssS'DETMERING TIMOTHY J'
p112
(dp113
g3
F-0.501908277920955
sg4
F-0.5457262678594518
sg5
F0.9353183958766824
sg6
F-0.12071694329074059
sg7
F-0.08556846643359434
sg8
F-0.4610901621263017
sg9
F0.7883864051449052
sg10
F-0.14864158341682723
sg11
F-0.6484995308276384
sg12
F-0.3863409911080092
sg13
F-0.1163095042057359
sg14
F-0.24766727858776305
sg15
F-0.2616243400079146
sg16
F-0.5259442492721301
sg17
F-0.3109308693781165
sg18
I00
sg19
F0.5369248441712194
sg20
F-0.9384829670674935
sg21
F0.2659625219167284
sg22
F-0.2943224920282611
sg23
F-0.31897230514566277
ssS'WAKEHAM JOHN'
p114
(dp115
g3
F-0.025243531535493358
sg4
F-0.5457262678594518
sg5
F-0.32280156308388
sg6
F-0.23281354340359753
sg7
F-0.08556846643359434
sg8
F-0.30467160009234656
sg9
F-0.1904108853781678
sg10
F-0.4565407952264736
sg11
F-0.6484995308276384
sg12
F-0.14919850578588456
sg13
F-0.20328460943412696
sg14
F-0.24766727858776305
sg15
F-0.2621238963555657
sg16
F-0.5259442492721301
sg17
F-0.3109308693781165
sg18
I00
sg19
F-1.8624580532189177
sg20
F0.31079801176780747
sg21
F1.5145784546908665
sg22
F-0.3887048686189728
sg23
F3.1734112111132746
ssS'POWERS WILLIAM'
p116
(dp117
g3
F-0.025243531535493358
sg4
F-0.2775731496286916
sg5
F-0.32280156308388
sg6
F-0.25688581321559156
sg7
F-0.08556846643359434
sg8
F-0.30467160009234656
sg9
F-0.1904108853781678
sg10
F-0.4565407952264736
sg11
F-0.6587829010769567
sg12
F-0.14919850578588456
sg13
F-0.20328460943412696
sg14
F-0.2380064982173184
sg15
F-0.2621238963555657
sg16
F-0.5259442492721301
sg17
F-0.3109308693781165
sg18
I00
sg19
F0.5369248441712194
sg20
F0.3232868084894806
sg21
F-0.6002741730885215
sg22
F-0.3887048686189728
sg23
F0.14931207208751426
ssS'GOLD JOSEPH'
p118
(dp119
g3
F-0.06528698191171729
sg4
F-0.5457262678594518
sg5
F-0.32280156308388
sg6
F-0.014173890881536005
sg7
F-0.08556846643359434
sg8
F-0.17059854692038506
sg9
F-0.1904108853781678
sg10
F-0.3348626495543705
sg11
F-0.6484995308276384
sg12
F-0.5757815473212341
sg13
F-0.4593540347773538
sg14
F-0.24766727858776305
sg15
F0.4617889541340593
sg16
F-0.5259442492721301
sg17
F-0.3109308693781165
sg18
I00
sg19
F0.5369248441712194
sg20
F0.31079801176780747
sg21
F-0.6002741730885215
sg22
F-0.2314005747882221
sg23
F-0.31897230514566277
ssS'BANNANTINE JAMES M'
p120
(dp121
g3
F-1.9719389680740191
sg4
F-0.3167163061489536
sg5
F-0.32280156308388
sg6
F-0.15332077473216174
sg7
F-0.08556846643359434
sg8
F-0.30467160009234656
sg9
F0.625407314462432
sg10
F0.3719534826601776
sg11
F-0.23529501717321283
sg12
F-0.14919850578588456
sg13
F0.3187701650665498
sg14
F-0.23593633099508027
sg15
F0.5017844079145853
sg16
F-0.00037695341284508437
sg17
F-0.3109308693781165
sg18
I00
sg19
F0.5369248441712194
sg20
F0.34392829171106193
sg21
F0.36402339508735154
sg22
F0.4258655524386862
sg23
F-0.31897230514566277
ssS'DUNCAN JOHN H'
p122
(dp123
g3
F-0.025243531535493358
sg4
F-0.5457262678594518
sg5
F-0.32280156308388
sg6
F-0.24814159283386264
sg7
F-0.08556846643359434
sg8
F-0.30467160009234656
sg9
F-0.1904108853781678
sg10
F-0.41675932171321867
sg11
F-0.6484995308276384
sg12
F-0.14919850578588456
sg13
F-0.47331531232312996
sg14
F-0.24766727858776305
sg15
F-0.2621238963555657
sg16
F-0.5259442492721301
sg17
F-0.3109308693781165
sg18
I00
sg19
F-1.8624580532189177
sg20
F0.31079801176780747
sg21
F-0.6002741730885215
sg22
F-0.3887048686189728
sg23
F2.949201329196356
ssS'SHAPIRO RICHARD S'
p124
(dp125
g3
F-0.09191262170041785
sg4
F6.244486585057717
sg5
F-0.32280156308388
sg6
F-0.13734016479244093
sg7
F-0.08556846643359434
sg8
F-0.2599805823683594
sg9
F-0.1904108853781678
sg10
F-0.31715288942766295
sg11
F3.5620731603477758
sg12
F-0.14919850578588456
sg13
F-0.4224224514885797
sg14
F0.5824697775297314
sg15
F-0.26197800821864103
sg16
F0.4712860044095902
sg17
F0.5041008370148876
sg18
I00
sg19
F0.5369248441712194
sg20
F0.31079801176780747
sg21
F2.3384739867131508
sg22
F-0.26232132397499086
sg23
F-0.31897230514566277
ssS'SHERRIFF JOHN R'
p126
(dp127
g3
F1.0259162891341334
sg4
F0.8625275241913525
sg5
F-0.32280156308388
sg6
F0.2332400396971941
sg7
F-0.08556846643359434
sg8
F0.4997667189394226
sg9
F-0.1904108853781678
sg10
F0.02962441842465578
sg11
F1.2959922981343646
sg12
F-0.14919850578588456
sg13
F-0.1577647871671436
sg14
F-0.1924628193280793
sg15
F1.3750469229413511
sg16
F-0.14861388301418188
sg17
F-0.02253503480828424
sg18
I00
sg19
F0.5369248441712194
sg20
F0.31079801176780747
sg21
F-0.6002741730885215
sg22
F0.1941406690414663
sg23
F-0.31897230514566277
ssS'SHELBY REX'
p128
(dp129
g3
F-0.49250111181264444
sg4
F-0.470139482854808
sg5
F-0.32280156308388
sg6
F-0.030350879477688622
sg7
F-0.08556846643359434
sg8
F-0.662199741884244
sg9
F-0.1904108853781678
sg10
F-0.0732385439363065
sg11
F-0.5849296056500345
sg12
F-0.14919850578588456
sg13
F-0.20328460943412696
sg14
F-0.22903577358761978
sg15
F1.1284853614923611
sg16
F-0.3507551506523684
sg17
F-0.1353855787703925
sg18
I01
sg19
F0.5369248441712194
sg20
F0.3454885587148229
sg21
F-0.4458876772662602
sg22
F-0.01765138495362612
sg23
F-0.31897230514566277
ssS'LEMAISTRE CHARLES'
p130
(dp131
g3
F-0.025243531535493358
sg4
F-0.5457262678594518
sg5
F-0.32280156308388
sg6
F-0.24701103062066848
sg7
F-0.08556846643359434
sg8
F-0.30467160009234656
sg9
F-0.1904108853781678
sg10
F-0.41010087930997136
sg11
F-0.6484995308276384
sg12
F-0.14919850578588456
sg13
F-0.4644494214422115
sg14
F-0.24766727858776305
sg15
F-0.2621238963555657
sg16
F-0.5259442492721301
sg17
F-0.3109308693781165
sg18
I00
sg19
F-1.8624580532189177
sg20
F0.31079801176780747
sg21
F-0.6002741730885215
sg22
F-0.3887048686189728
sg23
F3.2786310704789283
ssS'DEFFNER JOSEPH M'
p132
(dp133
g3
F-0.5325585609479581
sg4
F-0.2501279479305769
sg5
F-0.32280156308388
sg6
F-0.12025725669485585
sg7
F-0.08556846643359434
sg8
F-0.30467160009234656
sg9
F-0.1904108853781678
sg10
F-0.4511684515017761
sg11
F-0.15396290701951368
sg12
F-0.5235833700310026
sg13
F-0.5497066633067134
sg14
F-0.20488382266150815
sg15
F-0.2400081389683147
sg16
F1.0238054692873
sg17
F-0.2607750720616239
sg18
I00
sg19
F0.5369248441712194
sg20
F0.31079801176780747
sg21
F0.008352778730729087
sg22
F-0.3808134173232603
sg23
F-0.31897230514566277
ssS'KISHKILL JOSEPH G'
p134
(dp135
g3
F-0.7556637839408157
sg4
F-0.5457262678594518
sg5
F-0.32280156308388
sg6
F-0.17720966735317567
sg7
F-0.08556846643359434
sg8
F-0.30467160009234656
sg9
F-0.1904108853781678
sg10
F-0.30948794205405505
sg11
F-0.6484995308276384
sg12
F-0.14919850578588456
sg13
F-0.20328460943412696
sg14
F-0.24766727858776305
sg15
F0.1488535954075116
sg16
F-0.5259442492721301
sg17
F-0.3109308693781165
sg18
I00
sg19
F0.5369248441712194
sg20
F0.267433579204366
sg21
F1.8190373495918468
sg22
F0.06479096520807351
sg23
F-0.31897230514566277
ssS'WHALLEY LAWRENCE G'
p136
(dp137
g3
F1.5969536699231306
sg4
F2.1367047571267768
sg5
F-0.32280156308388
sg6
F0.2719262958455998
sg7
F-0.08556846643359434
sg8
F1.840497250659038
sg9
F-0.1904108853781678
sg10
F0.5072415441821005
sg11
F2.994618092953576
sg12
F0.28474498459666997
sg13
F0.15424912532125992
sg14
F0.1277230443780865
sg15
F0.003556968565295725
sg16
F1.9806074694413829
sg17
F-0.009996085479161098
sg18
I00
sg19
F0.5369248441712194
sg20
F0.31079801176780747
sg21
F0.4012748933728799
sg22
F0.9444191777714338
sg23
F-0.31897230514566277
ssS'MCCARTY DANNY J'
p138
(dp139
g3
F-0.025243531535493358
sg4
F0.07336549503572608
sg5
F-0.32280156308388
sg6
F-0.25688581321559156
sg7
F-0.08556846643359434
sg8
F-0.30467160009234656
sg9
F-0.1904108853781678
sg10
F-0.3540764198426752
sg11
F-0.1950963880167868
sg12
F-0.14919850578588456
sg13
F-0.4102346539145337
sg14
F-0.10758596321631553
sg15
F-0.2621238963555657
sg16
F-0.1890421365418192
sg17
F-0.2858529707198702
sg18
I00
sg19
F0.5369248441712194
sg20
F0.31079801176780747
sg21
F-0.6002741730885215
sg22
F-0.4044173742324973
sg23
F-0.31897230514566277
ssS'MCCONNELL MICHAEL S'
p140
(dp141
g3
F0.5797618381847773
sg4
F0.926416354373849
sg5
F-0.32280156308388
sg6
F-0.019330272079693258
sg7
F-0.08556846643359434
sg8
F0.14223857714752516
sg9
F-0.1904108853781678
sg10
F0.025139424505740166
sg11
F1.3763895564472166
sg12
F-0.14919850578588456
sg13
F-0.20358338702508574
sg14
F1.6361848936489451
sg15
F-0.2621238963555657
sg16
F0.713855525575414
sg17
F2.121625300471773
sg18
I00
sg19
F0.5369248441712194
sg20
F0.31079801176780747
sg21
F0.9714627584772002
sg22
F0.2864281114529543
sg23
F-0.31897230514566277
ssS'DELAINEY DAVID W'
p142
(dp143
g3
F0.5806367606278865
sg4
F0.820234918295897
sg5
F-0.32280156308388
sg6
F0.2798860191075933
sg7
F-0.08556846643359434
sg8
F1.840497250659038
sg9
F-0.1904108853781678
sg10
F0.10818895526100744
sg11
F1.290383187089282
sg12
F1.1163800031152598
sg13
F-0.059561594202331695
sg14
F1.8618331208729024
sg15
F-0.26113274119500485
sg16
F0.3634773283358907
sg17
F7.325289272057877
sg18
I01
sg19
F0.5369248441712194
sg20
F0.31079801176780747
sg21
F1.088040316547071
sg22
F0.20898095110611004
sg23
F-0.31897230514566277
ssS'SULLIVAN-SHAKLOVITZ COLLEEN'
p144
(dp145
g3
F-0.8359256691818854
sg4
F-0.5457262678594518
sg5
F0.043248507619814365
sg6
F-0.1439191324234604
sg7
F-0.08556846643359434
sg8
F-0.7515817773322183
sg9
F-0.1904108853781678
sg10
F-0.25638148895410307
sg11
F-0.6484995308276384
sg12
F-0.14919850578588456
sg13
F-0.25976801719791615
sg14
F-0.24766727858776305
sg15
F-0.2624581128147022
sg16
F-0.5259442492721301
sg17
F-0.3109308693781165
sg18
I00
sg19
F-1.8624580532189177
sg20
F0.31079801176780747
sg21
F-0.6002741730885215
sg22
F-0.3887048686189728
sg23
F-0.31897230514566277
ssS'WROBEL BRUCE'
p146
(dp147
g3
F-0.025243531535493358
sg4
F-0.5457262678594518
sg5
F-0.32280156308388
sg6
F-0.25688581321559156
sg7
F-0.08556846643359434
sg8
F-0.30467160009234656
sg9
F-0.1904108853781678
sg10
F-0.45441947712664504
sg11
F-0.6484995308276384
sg12
F-0.14919850578588456
sg13
F-0.5234607980437883
sg14
F-0.24766727858776305
sg15
F-0.2621238963555657
sg16
F-0.5259442492721301
sg17
F-0.3109308693781165
sg18
I00
sg19
F-1.8624580532189177
sg20
F0.31079801176780747
sg21
F-0.6002741730885215
sg22
F-0.3887048686189728
sg23
F-0.31897230514566277
ssS'LINDHOLM TOD A'
p148
(dp149
g3
F-0.3202253830746616
sg4
F-0.5457262678594518
sg5
F0.07166086806903096
sg6
F-0.15787784490110476
sg7
F-0.08556846643359434
sg8
F-0.662199741884244
sg9
F-0.1904108853781678
sg10
F0.01913779256811172
sg11
F-0.6484995308276384
sg12
F-0.7976118381527723
sg13
F-0.003891525436152549
sg14
F-0.24766727858776305
sg15
F-0.26027597995452006
sg16
F-0.5259442492721301
sg17
F-0.3109308693781165
sg18
I00
sg19
F0.5369248441712194
sg20
F0.31079801176780747
sg21
F0.39858464203280597
sg22
F-0.19457896119148074
sg23
F-0.31897230514566277
ssS'MEYER JEROME J'
p150
(dp151
g3
F-0.025243531535493358
sg4
F-0.5457262678594518
sg5
F-0.32280156308388
sg6
F-0.25665936160428876
sg7
F-0.08556846643359434
sg8
F-0.30467160009234656
sg9
F-0.1904108853781678
sg10
F-0.4565407952264736
sg11
F-0.6484995308276384
sg12
F-0.14919850578588456
sg13
F-0.20328460943412696
sg14
F-0.24766727858776305
sg15
F-0.2621238963555657
sg16
F-0.5259442492721301
sg17
F-0.3109308693781165
sg18
I00
sg19
F-1.8624580532189177
sg20
F0.28857461429481424
sg21
F-0.9483830018946658
sg22
F-0.3887048686189728
sg23
F0.8360413107651653
ssS'LAY KENNETH L'
p152
(dp153
g3
F5.530304000821867
sg4
F1.351142098685657
sg5
F0.07016317820566315
sg6
F11.451176331664575
sg7
F11.914057801778238
sg8
F5.415778668578012
sg9
F-0.1904108853781678
sg10
F7.473761730090362
sg11
F1.5839266651152766
sg12
F5.055542863885039
sg13
F6.850968133137437
sg14
F-0.23110594080985794
sg15
F8.897165699161942
sg16
F1.1316141453609996
sg17
F-0.11030768011214623
sg18
I01
sg19
F0.5369248441712194
sg20
F-0.14712453469353995
sg21
F1.4190624138689618
sg22
F6.9184350346308605
sg23
F-0.31897230514566277
ssS'BUTTS ROBERT H'
p154
(dp155
g3
F-0.144827931059665
sg4
F-0.5457262678594518
sg5
F-0.32280156308388
sg6
F-0.11314228951856102
sg7
F-0.08556846643359434
sg8
F-0.17059854692038506
sg9
F-0.1904108853781678
sg10
F-0.40933333225118423
sg11
F-0.6484995308276384
sg12
F-0.7976118381527723
sg13
F-0.20328460943412696
sg14
F-0.24766727858776305
sg15
F-0.12939575355204064
sg16
F-0.5259442492721301
sg17
F-0.3109308693781165
sg18
I00
sg19
F0.5369248441712194
sg20
F0.22753936695665342
sg21
F-0.7724502588532538
sg22
F-0.24312192124333046
sg23
F-0.31897230514566277
ssS'OLSON CINDY K'
p156
(dp157
g3
F0.3280641497511096
sg4
F-0.03866491845329957
sg5
F-0.09092211599049992
sg6
F-0.10749230485812321
sg7
F-0.08556846643359434
sg8
F-0.17059854692038506
sg9
F-0.1904108853781678
sg10
F-0.05492054202519417
sg11
F0.13023205259800985
sg12
F-0.9257831090003156
sg13
F-0.2005602579229169
sg14
F-0.22006504895792117
sg15
F-0.2617419346879812
sg16
F-0.25642255908788136
sg17
F-0.12284662944126937
sg18
I00
sg19
F0.5369248441712194
sg20
F0.31079801176780747
sg21
F0.5455547692959445
sg22
F0.032529677825114164
sg23
F-0.31897230514566277
ssS'MCDONALD REBECCA'
p158
(dp159
g3
F-0.025243531535493358
sg4
F-0.16914210685417283
sg5
F-0.32280156308388
sg6
F-0.25688581321559156
sg7
F-0.08556846643359434
sg8
F-0.30467160009234656
sg9
F-0.1904108853781678
sg10
F-0.2031192922830578
sg11
F0.003092202242801961
sg12
F-0.14919850578588456
sg13
F-0.3902027589524586
sg14
F-0.246977222847017
sg15
F-0.2621238963555657
sg16
F0.20176431422534147
sg17
F-0.29839192004899334
sg18
I00
sg19
F0.5369248441712194
sg20
F0.31079801176780747
sg21
F-0.6002741730885215
sg22
F0.014723735840406392
sg23
F-0.31897230514566277
ssS'CUMBERLAND MICHAEL S'
p160
(dp161
g3
F-0.6810993936492733
sg4
F-0.5457262678594518
sg5
F-0.32280156308388
sg6
F-0.16555809318399664
sg7
F-0.08556846643359434
sg8
F-0.550472197574276
sg9
F-0.1904108853781678
sg10
F-0.44327944061216706
sg11
F-0.6484995308276384
sg12
F-0.6267168103560479
sg13
F-0.20328460943412696
sg14
F-0.24766727858776305
sg15
F-0.2619709348544265
sg16
F-0.5259442492721301
sg17
F-0.3109308693781165
sg18
I00
sg19
F-1.8624580532189177
sg20
F0.31079801176780747
sg21
F-0.45897538648824154
sg22
F-0.3478082186135509
sg23
F-0.31897230514566277
ssS'GAHN ROBERT S'
p162
(dp163
g3
F-0.6313408044647644
sg4
F-0.5457262678594518
sg5
F-0.09683310158526946
sg6
F-0.15508580845940045
sg7
F-0.08556846643359434
sg8
F-0.38523162864160587
sg9
F-0.1904108853781678
sg10
F-0.4253629397990914
sg11
F-0.6484995308276384
sg12
F-0.14919850578588456
sg13
F-0.5355095540982323
sg14
F-0.24766727858776305
sg15
F-0.1949207471238547
sg16
F-0.5259442492721301
sg17
F-0.3109308693781165
sg18
I00
sg19
F-1.8624580532189177
sg20
F0.3506922240155201
sg21
F0.2132481375504147
sg22
F-0.33411326043049416
sg23
F-0.31897230514566277
ssS'MCCLELLAN GEORGE'
p164
(dp165
g3
F-0.1315501080630391
sg4
F0.2132910315621798
sg5
F-0.32280156308388
sg6
F-0.10780818394048965
sg7
F-0.08556846643359434
sg8
F-0.03652549374842353
sg9
F-0.1904108853781678
sg10
F-0.3234894833700648
sg11
F0.7032962310372924
sg12
F-0.14919850578588456
sg13
F-0.44421036539434183
sg14
F-0.22213521618015933
sg15
F-0.21698964347318445
sg16
F0.17481214520691657
sg17
F-0.3109308693781165
sg18
I00
sg19
F0.5369248441712194
sg20
F0.14428072214549933
sg21
F4.543898409608361
sg22
F-0.2314005747882221
sg23
F-0.31897230514566277
ssS'HERMANN ROBERT J'
p166
(dp167
g3
F-0.13679964272169456
sg4
F-0.5457262678594518
sg5
F-0.32280156308388
sg6
F-0.11021650756703585
sg7
F-0.08556846643359434
sg8
F-0.21528956464437224
sg9
F-0.1904108853781678
sg10
F-0.3687763787945439
sg11
F-0.6484995308276384
sg12
F-0.8403355951019533
sg13
F-0.5130337619148732
sg14
F-0.24766727858776305
sg15
F0.10560350991777545
sg16
F-0.5259442492721301
sg17
F-0.3109308693781165
sg18
I00
sg19
F0.5369248441712194
sg20
F-0.11382107676907831
sg21
F0.17148865053287052
sg22
F-0.21166146189265775
sg23
F-0.31897230514566277
ssS'SCRIMSHAW MATTHEW'
p168
(dp169
g3
F-0.025243531535493358
sg4
F-0.5457262678594518
sg5
F-0.32280156308388
sg6
F-0.25688581321559156
sg7
F-0.08556846643359434
sg8
F-0.30467160009234656
sg9
F-0.1904108853781678
sg10
F-0.35397507319454175
sg11
F-0.6484995308276384
sg12
F-0.14919850578588456
sg13
F-0.38971643698622266
sg14
F-0.24766727858776305
sg15
F-0.2621238963555657
sg16
F-0.5259442492721301
sg17
F-0.3109308693781165
sg18
I00
sg19
F0.5369248441712194
sg20
F0.31079801176780747
sg21
F-0.6002741730885215
sg22
F-0.3887048686189728
sg23
F-0.31897230514566277
ssS'GATHMANN WILLIAM D'
p170
(dp171
g3
F-0.025243531535493358
sg4
F-0.5457262678594518
sg5
F-0.32280156308388
sg6
F-0.25688581321559156
sg7
F-0.08556846643359434
sg8
F-0.30467160009234656
sg9
F0.9497001645574027
sg10
F-0.16199878022872966
sg11
F-0.6484995308276384
sg12
F-0.14919850578588456
sg13
F-0.17539654526216591
sg14
F-0.24766727858776305
sg15
F-0.2621238963555657
sg16
F-0.5259442492721301
sg17
F-0.3109308693781165
sg18
I00
sg19
F-1.8624580532189177
sg20
F0.31079801176780747
sg21
F-0.6002741730885215
sg22
F-0.31981268852975436
sg23
F-0.31897230514566277
ssS'HAEDICKE MARK E'
p172
(dp173
g3
F0.643365200109047
sg4
F1.2323628651069312
sg5
F2.5851189943367183
sg6
F0.17938876118966582
sg7
F-0.08556846643359434
sg8
F0.18692959487151234
sg9
F0.7785759087173484
sg10
F-0.346926624281145
sg11
F1.0566702268775028
sg12
F0.5838112832409377
sg13
F-0.4222256376786624
sg14
F1.0834502453113615
sg15
F-0.21628672790436565
sg16
F1.8997509623861084
sg17
F0.4539450396983951
sg18
I00
sg19
F0.5369248441712194
sg20
F-1.2036500945807456
sg21
F0.8455541484620278
sg22
F-0.1899247723404981
sg23
F-0.31897230514566277
ssS'BOWEN JR RAYMOND M'
p174
(dp175
g3
F-0.025243531535493358
sg4
F0.2645820642439024
sg5
F-0.32280156308388
sg6
F0.044911099279531984
sg7
F-0.08556846643359434
sg8
F0.36569366576746104
sg9
F-0.1904108853781678
sg10
F-0.43613741603963113
sg11
F0.8192178593023349
sg12
F0.5683401563745002
sg13
F-0.20328460943412696
sg14
F-0.23731644247657235
sg15
F-0.2611681080160775
sg16
F1.3607075820176109
sg17
F-0.12284662944126937
sg18
I01
sg19
F0.5369248441712194
sg20
F0.3510402451508307
sg21
F0.596839200247264
sg22
F-0.3257829513789338
sg23
F-0.31897230514566277
ssS'GILLIS JOHN'
p176
(dp177
g3
F-0.025243531535493358
sg4
F-0.5457262678594518
sg5
F-0.32280156308388
sg6
F-0.25688581321559156
sg7
F-0.08556846643359434
sg8
F-0.30467160009234656
sg9
F-0.1904108853781678
sg10
F-0.46307911109151806
sg11
F-0.6484995308276384
sg12
F-0.14919850578588456
sg13
F-0.5513395927811092
sg14
F-0.24766727858776305
sg15
F-0.2621238963555657
sg16
F-0.5259442492721301
sg17
F-0.3109308693781165
sg18
I00
sg19
F-1.8624580532189177
sg20
F0.31079801176780747
sg21
F-0.6002741730885215
sg22
F-0.41376269786612674
sg23
F-0.31897230514566277
ssS'FITZGERALD JAY L'
p178
(dp179
g3
F-0.5813022400984604
sg4
F-0.15024541060301186
sg5
F-0.32280156308388
sg6
F-0.09694415940902168
sg7
F-0.08556846643359434
sg8
F-0.5281266887122824
sg9
F-0.1904108853781678
sg10
F-0.21447303099487788
sg11
F0.005896757765343311
sg12
F-0.14579085893161786
sg13
F-0.4102161150452534
sg14
F-0.24490705562477888
sg15
F-0.010246701699357166
sg16
F-0.5124681647629177
sg17
F-0.21061927474513137
sg18
I00
sg19
F0.5369248441712194
sg20
F0.31079801176780747
sg21
F-0.42199048968686464
sg22
F0.026062142706509844
sg23
F-0.31897230514566277
ssS'MORAN MICHAEL P'
p180
(dp181
g3
F-0.025243531535493358
sg4
F-0.2690246441817378
sg5
F-0.32280156308388
sg6
F-0.25688581321559156
sg7
F-0.08556846643359434
sg8
F-0.30467160009234656
sg9
F-0.1904108853781678
sg10
F-0.44114225674314184
sg11
F-0.5512749393795383
sg12
F-0.14919850578588456
sg13
F-0.5406180904261843
sg14
F-0.24283688840254072
sg15
F-0.2621238963555657
sg16
F-0.5259442492721301
sg17
F-0.3109308693781165
sg18
I00
sg19
F0.5369248441712194
sg20
F0.31079801176780747
sg21
F-0.6002741730885215
sg22
F-0.3709433616061313
sg23
F-0.31897230514566277
ssS'REDMOND BRIAN L'
p182
(dp183
g3
F-1.2974577569913295
sg4
F0.1804467737923048
sg5
F-0.32280156308388
sg6
F-0.2442934982288137
sg7
F-0.08556846643359434
sg8
F-0.30467160009234656
sg9
F-0.1904108853781678
sg10
F0.8004647575892772
sg11
F0.32374638365336306
sg12
F-0.14919850578588456
sg13
F1.0652575689154238
sg14
F-0.10344562877183924
sg15
F-0.2621238963555657
sg16
F2.223176990607207
sg17
F0.30347764774891745
sg18
I00
sg19
F0.5369248441712194
sg20
F0.31079801176780747
sg21
F-0.6445057829591067
sg22
F-0.26126237369040234
sg23
F-0.31897230514566277
ssS'BAZELIDES PHILIP J'
p184
(dp185
g3
F-1.4096018160593002
sg4
F-0.5457262678594518
sg5
F0.6900613873490796
sg6
F-0.15965881955554953
sg7
F-0.08556846643359434
sg8
F-0.30467160009234656
sg9
F-0.1904108853781678
sg10
F-0.2179691665642741
sg11
F-0.6484995308276384
sg12
F-0.9364640482376109
sg13
F-0.2086210013996282
sg14
F-0.24766727858776305
sg15
F-0.2618285833996091
sg16
F-0.5259442492721301
sg17
F-0.3109308693781165
sg18
I00
sg19
F-1.8624580532189177
sg20
F0.31079801176780747
sg21
F-0.6002741730885215
sg22
F-0.3887048686189728
sg23
F-0.31897230514566277
ssS'BELDEN TIMOTHY N'
p186
(dp187
g3
F-0.47741744889344107
sg4
F3.0239496382527147
sg5
F2.567730866490024
sg6
F0.3650909533611926
sg7
F-0.08556846643359434
sg8
F3.851592154418106
sg9
F-0.1904108853781678
sg10
F-0.29712575562462584
sg11
F4.49131589014981
sg12
F-0.14919850578588456
sg13
F-0.3479869512140649
sg14
F0.07803903104437111
sg15
F-0.0763083867809486
sg16
F2.5466030188283053
sg17
F1.0432756581671827
sg18
I01
sg19
F0.5369248441712194
sg20
F-3.534808890648249
sg21
F-0.5798912778002135
sg22
F-0.37295691488182464
sg23
F-0.31897230514566277
ssS'DURAN WILLIAM D'
p188
(dp189
g3
F-0.5005643970483392
sg4
F-0.16464289346103925
sg5
F-0.32280156308388
sg6
F-0.02024614052860185
sg7
F-0.08556846643359434
sg8
F-0.17059854692038506
sg9
F-0.1904108853781678
sg10
F-0.21128789688085609
sg11
F-0.11002487049969917
sg12
F0.7920844715173616
sg13
F-0.24047595246107234
sg14
F-0.24766727858776305
sg15
F-0.26121496905399877
sg16
F0.9025207087043882
sg17
F-0.27331402139074706
sg18
I00
sg19
F0.5369248441712194
sg20
F0.31079801176780747
sg21
F-0.37557759494594933
sg22
F-0.3572439099989533
sg23
F-0.31897230514566277
ssS'THORN TERENCE H'
p190
(dp191
g3
F-0.4207644708572312
sg4
F-0.4516927079429604
sg5
F-0.1695765673201173
sg6
F-0.15385711344610103
sg7
F-0.08556846643359434
sg8
F-0.30467160009234656
sg9
F-0.1904108853781678
sg10
F0.3030359810777819
sg11
F-0.6017569387852826
sg12
F-0.7548880812035912
sg13
F0.40635963980015916
sg14
F-0.2276556621061277
sg15
F0.11461143924497784
sg16
F-0.5259442492721301
sg17
F-0.3109308693781165
sg18
I00
sg19
F0.5369248441712194
sg20
F0.31079801176780747
sg21
F0.1178775157198655
sg22
F-0.269233208812258
sg23
F-0.31897230514566277
ssS'FASTOW ANDREW S'
p192
(dp193
g3
F1.1093348945499413
sg4
F-0.5457262678594518
sg5
F-0.32280156308388
sg6
F0.0171551186082874
sg7
F-0.08556846643359434
sg8
F0.3210026480434739
sg9
F-0.1904108853781678
sg10
F-0.18643659786842479
sg11
F-0.6484995308276384
sg12
F1.8701535380193843
sg13
F-0.20328460943412696
sg14
F-0.24766727858776305
sg15
F-0.01727585738754513
sg16
F-0.5259442492721301
sg17
F-0.3109308693781165
sg18
I01
sg19
F0.5369248441712194
sg20
F-1.955593884501099
sg21
F0.35481352563484614
sg22
F0.44426862056218125
sg23
F-0.31897230514566277
ssS'FOY JOE'
p194
(dp195
g3
F-0.025243531535493358
sg4
F-0.5457262678594518
sg5
F0.04294227893641098
sg6
F-0.23635401203043635
sg7
F-0.08556846643359434
sg8
F-0.30467160009234656
sg9
F-0.1904108853781678
sg10
F-0.42134355763741516
sg11
F-0.6681314194854279
sg12
F-0.14919850578588456
sg13
F-0.47941934281778287
sg14
F-0.246977222847017
sg15
F-0.2621238963555657
sg16
F-0.5259442492721301
sg17
F-0.3109308693781165
sg18
I00
sg19
F0.5369248441712194
sg20
F0.31079801176780747
sg21
F-0.6002741730885215
sg22
F-0.3887048686189728
sg23
F-0.31897230514566277
ssS'CALGER CHRISTOPHER F'
p196
(dp197
g3
F-0.29410369861319197
sg4
F0.5975238553357858
sg5
F-0.32280156308388
sg6
F-0.07156982109609192
sg7
F-0.08556846643359434
sg8
F0.2763116303194867
sg9
F-0.1904108853781678
sg10
F-0.4565407952264736
sg11
F1.3754547046063696
sg12
F-0.4553022616748214
sg13
F-0.20328460943412696
sg14
F-0.15657992080928484
sg15
F-0.2621716415640138
sg16
F2.155796568061145
sg17
F0.002542863849962043
sg18
I01
sg19
F0.5369248441712194
sg20
F-0.08468055108517439
sg21
F-0.13241280490124796
sg22
F-0.3887048686189728
sg23
F-0.31897230514566277
ssS'RICE KENNETH D'
p198
(dp199
g3
F0.9689133421206798
sg4
F-0.1641929721217259
sg5
F-0.32280156308388
sg6
F-0.19980350095897573
sg7
F-0.08556846643359434
sg8
F0.7232218075593585
sg9
F-0.1904108853781678
sg10
F3.172593955641623
sg11
F0.1377108673247868
sg12
F1.6667132611290514
sg13
F3.713542806059034
sg14
F-0.24352694414328677
sg15
F-0.10801385770204698
sg16
F0.04005130011479222
sg17
F-0.2607750720616239
sg18
I01
sg19
F0.5369248441712194
sg20
F-5.482981250930235
sg21
F0.13738789706004137
sg22
F0.9205476124923054
sg23
F-0.31897230514566277
ssS'KAMINSKI WINCENTY J'
p200
(dp201
g3
F-0.04974135994255222
sg4
F1.501415826016318
sg5
F-0.32280156308388
sg6
F-0.13403067002575766
sg7
F-0.08556846643359434
sg8
F-0.48343567098829526
sg9
F-0.1904108853781678
sg10
F-0.31892791283043487
sg11
F-0.12498249995325304
sg12
F-0.5438908261840874
sg13
F-0.3702176423000791
sg14
F9.658772935562489
sg15
F-0.25847315625034206
sg16
F0.026575215605579787
sg17
F1.8332294659019406
sg18
I00
sg19
F0.5369248441712194
sg20
F0.31079801176780747
sg21
F1.025292021777238
sg22
F-0.3887048686189728
sg23
F-0.31897230514566277
ssS'COX DAVID'
p202
(dp203
g3
F0.2245433262824237
sg4
F-0.5254798075903507
sg5
F-0.32280156308388
sg6
F-0.13238321476869114
sg7
F-0.08556846643359434
sg8
F-0.1259075291963979
sg9
F-0.1904108853781678
sg10
F-0.39670320859705716
sg11
F-0.6036266424669768
sg12
F-0.14919850578588456
sg13
F-0.5281125452554043
sg14
F-0.23317610803209607
sg15
F-0.2621645681997993
sg16
F-0.5259442492721301
sg17
F-0.2607750720616239
sg18
I00
sg19
F0.5369248441712194
sg20
F0.28373895220418244
sg21
F-0.3252626239369989
sg22
F-0.2628615334082416
sg23
F-0.31897230514566277
ssS'OVERDYKE JR JERE C'
p204
(dp205
g3
F-1.3107495787470451
sg4
F-0.5457262678594518
sg5
F-0.32280156308388
sg6
F-0.22866257118163386
sg7
F-0.08556846643359434
sg8
F-0.30467160009234656
sg9
F-0.1904108853781678
sg10
F0.7061233322429358
sg11
F-0.6484995308276384
sg12
F-0.8645411668390814
sg13
F0.5818541811816373
sg14
F-0.24766727858776305
sg15
F-0.26244573442732677
sg16
F-0.5259442492721301
sg17
F-0.3109308693781165
sg18
I00
sg19
F0.5369248441712194
sg20
F0.31079801176780747
sg21
F-0.5440454964311202
sg22
F0.5673904385634395
sg23
F-0.31897230514566277
ssS'PEREIRA PAULO V. FERRAZ'
p206
(dp207
g3
F-0.025243531535493358
sg4
F-0.5457262678594518
sg5
F-0.32280156308388
sg6
F-0.25374352860023974
sg7
F-0.08556846643359434
sg8
F-0.30467160009234656
sg9
F-0.1904108853781678
sg10
F-0.4565407952264736
sg11
F-0.6484995308276384
sg12
F-0.14919850578588456
sg13
F-0.20328460943412696
sg14
F-0.24766727858776305
sg15
F-0.2621238963555657
sg16
F-0.5259442492721301
sg17
F-0.3109308693781165
sg18
I00
sg19
F-1.8624580532189177
sg20
F0.18382857843079753
sg21
F-0.3232994675537017
sg22
F-0.3887048686189728
sg23
F2.90828615532906
ssS'STABLER FRANK'
p208
(dp209
g3
F-0.29891227236052037
sg4
F-0.5457262678594518
sg5
F-0.32280156308388
sg6
F-0.1311741915379013
sg7
F-0.08556846643359434
sg8
F-0.3940536355403209
sg9
F-0.1904108853781678
sg10
F-0.3940965274762955
sg11
F-0.6484995308276384
sg12
F-0.14919850578588456
sg13
F-0.20328460943412696
sg14
F-0.24766727858776305
sg15
F0.052226135213887734
sg16
F-0.5259442492721301
sg17
F-0.3109308693781165
sg18
I00
sg19
F0.5369248441712194
sg20
F0.31079801176780747
sg21
F-0.6002741730885215
sg22
F-0.19613318666810692
sg23
F-0.31897230514566277
ssS'SKILLING JEFFREY K'
p210
(dp211
g3
F5.802838842160624
sg4
F1.0604929134892291
sg5
F-0.32280156308388
sg6
F0.7247325162132888
sg7
F-0.08556846643359434
sg8
F4.16443017230637
sg9
F-0.1904108853781678
sg10
F3.74750677772806
sg11
F1.2389663358426906
sg12
F2.184506396900069
sg13
F3.5962359550056453
sg14
F-0.18142192747614255
sg15
F-0.24304172804582072
sg16
F0.6599511875385643
sg17
F0.06523761049557775
sg18
I01
sg19
F0.5369248441712194
sg20
F0.31079801176780747
sg21
F-0.28951378856214244
sg22
F2.9652093626467924
sg23
F-0.31897230514566277
ssS'BLAKE JR. NORMAN P'
p212
(dp213
g3
F-0.025243531535493358
sg4
F-0.5457262678594518
sg5
F-0.32280156308388
sg6
F-0.2567579466292793
sg7
F-0.08556846643359434
sg8
F-0.30467160009234656
sg9
F-0.1904108853781678
sg10
F-0.4565407952264736
sg11
F-0.6484995308276384
sg12
F-0.14919850578588456
sg13
F-0.20328460943412696
sg14
F-0.24766727858776305
sg15
F-0.2621238963555657
sg16
F-0.5259442492721301
sg17
F-0.3109308693781165
sg18
I00
sg19
F-1.8624580532189177
sg20
F0.16295730134953743
sg21
F-0.9695172286383098
sg22
F-0.3887048686189728
sg23
F3.3211933930526367
ssS'SHERRICK JEFFREY B'
p214
(dp215
g3
F-0.025243531535493358
sg4
F-0.29557000320122584
sg5
F-0.32280156308388
sg6
F-0.25688581321559156
sg7
F-0.08556846643359434
sg8
F-0.30467160009234656
sg9
F-0.1904108853781678
sg10
F-0.18027549876081
sg11
F-0.12498249995325304
sg12
F-0.14919850578588456
sg13
F-0.2459513859461756
sg14
F-0.23869655395806444
sg15
F-0.2621238963555657
sg16
F-0.00037695341284508437
sg17
F-0.08522978145389995
sg18
I00
sg19
F0.5369248441712194
sg20
F0.31079801176780747
sg21
F-0.6002741730885215
sg22
F-0.24892343105328738
sg23
F-0.31897230514566277
ssS'PRENTICE JAMES'
p216
(dp217
g3
F-0.025243531535493358
sg4
F-0.5457262678594518
sg5
F0.5352151809084755
sg6
F-0.19309949314717698
sg7
F-0.08556846643359434
sg8
F-0.30467160009234656
sg9
F-0.1904108853781678
sg10
F-0.29966185026202297
sg11
F-0.6484995308276384
sg12
F-0.14919850578588456
sg13
F-0.3624095448093734
sg14
F-0.24766727858776305
sg15
F-0.2621238963555657
sg16
F-0.5259442492721301
sg17
F-0.3109308693781165
sg18
I00
sg19
F0.5369248441712194
sg20
F0.31079801176780747
sg21
F-0.6002741730885215
sg22
F-0.34737435355117113
sg23
F-0.31897230514566277
ssS'GRAY RODNEY'
p218
(dp219
g3
F-1.9289767764275827
sg4
F-0.5457262678594518
sg5
F-0.07050386818828008
sg6
F-0.12726572491066776
sg7
F-0.08556846643359434
sg8
F-0.30467160009234656
sg9
F-0.1904108853781678
sg10
F-0.4565407952264736
sg11
F-0.6484995308276384
sg12
F-0.47184319141526637
sg13
F-0.20328460943412696
sg14
F-0.24766727858776305
sg15
F0.3393711238437367
sg16
F-0.5259442492721301
sg17
F-0.3109308693781165
sg18
I00
sg19
F-1.8624580532189177
sg20
F0.31079801176780747
sg21
F-0.6002741730885215
sg22
F-0.3887048686189728
sg23
F-0.31897230514566277
ssS'PICKERING MARK R'
p220
(dp221
g3
F2.6095749068186813
sg4
F-0.16734242149691939
sg5
F-0.32280156308388
sg6
F-0.10012861399492567
sg7
F-0.08556846643359434
sg8
F-0.5728177064362696
sg9
F-0.1904108853781678
sg10
F-0.4722817429123649
sg11
F0.010571016969578895
sg12
F-0.14919850578588456
sg13
F-0.5472448739208913
sg14
F-0.20971421284673047
sg15
F-0.2621238963555657
sg16
F-0.43161165770764304
sg17
F-0.3109308693781165
sg18
I00
sg19
F0.5369248441712194
sg20
F0.31079801176780747
sg21
F-0.23335782140041883
sg22
F-0.3887048686189728
sg23
F-0.31897230514566277
ssS'NOLES JAMES L'
p222
(dp223
g3
F-0.025243531535493358
sg4
F-0.5457262678594518
sg5
F0.8054851541644892
sg6
F-0.16935169469036968
sg7
F-0.08556846643359434
sg8
F-0.30467160009234656
sg9
F0.9349834227117143
sg10
F-0.417252293827542
sg11
F-0.6484995308276384
sg12
F-0.14919850578588456
sg13
F-0.20328460943412696
sg14
F-0.24766727858776305
sg15
F-0.2621238963555657
sg16
F-0.5259442492721301
sg17
F-0.3109308693781165
sg18
I00
sg19
F-1.8624580532189177
sg20
F0.31079801176780747
sg21
F-0.6002741730885215
sg22
F-0.22033426971613124
sg23
F-0.31897230514566277
ssS'KEAN STEVEN J'
p224
(dp225
g3
F0.854837454298324
sg4
F5.16692497740223
sg5
F-0.32280156308388
sg6
F-0.059334311543798104
sg7
F-0.08556846643359434
sg8
F0.05285654169955082
sg9
F-0.1904108853781678
sg10
F0.5193035761616266
sg11
F2.731924725675536
sg12
F-0.5839930534068667
sg13
F-0.11756346470112353
sg14
F4.408138804225816
sg15
F-0.2615129345215358
sg16
F1.3607075820176109
sg17
F4.541642520992539
sg18
I00
sg19
F0.5369248441712194
sg20
F0.31079801176780747
sg21
F0.016278113759595564
sg22
F1.6111519510832468
sg23
F-0.31897230514566277
ssS'FOWLER PEGGY'
p226
(dp227
g3
F-0.025243531535493358
sg4
F-0.33876245177530806
sg5
F-0.32280156308388
sg6
F-0.25688581321559156
sg7
F-0.08556846643359434
sg8
F-0.30467160009234656
sg9
F-0.1904108853781678
sg10
F-0.17181159658122988
sg11
F-0.660652604758651
sg12
F-0.14919850578588456
sg13
F-0.2679158502465952
sg14
F-0.23110594080985794
sg15
F-0.2621238963555657
sg16
F-0.5259442492721301
sg17
F-0.3109308693781165
sg18
I00
sg19
F0.5369248441712194
sg20
F0.31079801176780747
sg21
F-0.6002741730885215
sg22
F-0.17195057658591462
sg23
F-0.31897230514566277
ssS'WASAFF GEORGE'
p228
(dp229
g3
F-0.15546698796787342
sg4
F-0.3914032484749707
sg5
F0.8786943963001438
sg6
F-0.1399577554846494
sg7
F-0.08556846643359434
sg8
F-0.550472197574276
sg9
F-0.1904108853781678
sg10
F-0.1440175211740352
sg11
F-0.3549560528016438
sg12
F-0.7548880812035912
sg13
F-0.193828923828199
sg14
F-0.23524627525433423
sg15
F-0.2613414054393335
sg16
F-0.2294703900694565
sg17
F-0.2231582240742545
sg18
I00
sg19
F0.5369248441712194
sg20
F-0.6189096455159445
sg21
F-0.6002741730885215
sg22
F-0.2578264020456413
sg23
F-0.31897230514566277
ssS'WHITE JR THOMAS E'
p230
(dp231
g3
F0.24732630670098846
sg4
F-0.5457262678594518
sg5
F-0.32280156308388
sg6
F-0.03821122632114235
sg7
F-0.08556846643359434
sg8
F-0.4387446532643081
sg9
F-0.1904108853781678
sg10
F1.9748229283302134
sg11
F-0.6484995308276384
sg12
F-0.14919850578588456
sg13
F-0.2738502285305089
sg14
F-0.24766727858776305
sg15
F0.6971330441093336
sg16
F-0.5259442492721301
sg17
F-0.3109308693781165
sg18
I00
sg19
F0.5369248441712194
sg20
F0.31079801176780747
sg21
F0.9711961569930487
sg22
F6.461793304649551
sg23
F-0.31897230514566277
ssS'CHRISTODOULOU DIOMEDES'
p232
(dp233
g3
F-0.025243531535493358
sg4
F-0.5457262678594518
sg5
F-0.32280156308388
sg6
F-0.25688581321559156
sg7
F-0.08556846643359434
sg8
F-0.30467160009234656
sg9
F-0.1904108853781678
sg10
F0.5070388508858337
sg11
F-0.6484995308276384
sg12
F-0.14919850578588456
sg13
F0.5517990094181116
sg14
F-0.24766727858776305
sg15
F-0.2621238963555657
sg16
F-0.5259442492721301
sg17
F-0.3109308693781165
sg18
I00
sg19
F0.5369248441712194
sg20
F0.31079801176780747
sg21
F-0.6002741730885215
sg22
F0.023044059505030523
sg23
F-0.31897230514566277
ssS'ALLEN PHILLIP K'
p234
(dp235
g3
F-0.561717976131903
sg4
F0.7342999424870461
sg5
F3.5014761625428403
sg6
F0.2500915217097383
sg7
F-0.08556846643359434
sg8
F2.8907361671727365
sg9
F0.914061410577023
sg10
F-0.1969389275985614
sg11
F0.6453354169047713
sg12
F-0.5757815473212341
sg13
F-0.1806186860565213
sg14
F1.2587244034608573
sg15
F-0.2624669545199704
sg16
F0.1074317226608544
sg17
F0.5041008370148876
sg18
I00
sg19
F0.5369248441712194
sg20
F-4.778061943599222
sg21
F-0.6644039482762301
sg22
F-0.3887048686189728
sg23
F-0.31897230514566277
ssS'SHARP VICTORIA T'
p236
(dp237
g3
F-0.23840963557462985
sg4
F0.8395815358863714
sg5
F0.05029434068837292
sg6
F-0.07866816900785278
sg7
F-0.08556846643359434
sg8
F-0.30467160009234656
sg9
F-0.1904108853781678
sg10
F-0.3969455663163156
sg11
F1.6456268866111863
sg12
F-0.3752311053509441
sg13
F-0.4928623942967012
sg14
F-0.16210036673525324
sg15
F-0.260478455005161
sg16
F-0.20251822105103162
sg17
F-0.23569717340337765
sg18
I00
sg19
F0.5369248441712194
sg20
F0.31079801176780747
sg21
F1.8190858225889655
sg22
F-0.3452504617498323
sg23
F-0.31897230514566277
ssS'JAEDICKE ROBERT'
p238
(dp239
g3
F-0.025243531535493358
sg4
F-0.5457262678594518
sg5
F-0.32280156308388
sg6
F-0.24743408700084574
sg7
F-0.08556846643359434
sg8
F-0.30467160009234656
sg9
F0.9685313715647195
sg10
F-0.40704558547039527
sg11
F-0.6484995308276384
sg12
F-0.14919850578588456
sg13
F-0.4603812174764293
sg14
F-0.24766727858776305
sg15
F-0.2621238963555657
sg16
F-0.5259442492721301
sg17
F-0.3109308693781165
sg18
I00
sg19
F-1.8624580532189177
sg20
F0.31079801176780747
sg21
F-0.6002741730885215
sg22
F-0.4296120032806778
sg23
F3.1553584612909895
ssS'WINOKUR JR. HERBERT S'
p240
(dp241
g3
F-0.025243531535493358
sg4
F-0.5457262678594518
sg5
F-0.32280156308388
sg6
F-0.24729367117396703
sg7
F-0.08556846643359434
sg8
F-0.30467160009234656
sg9
F-0.1904108853781678
sg10
F-0.4565407952264736
sg11
F-0.6484995308276384
sg12
F-0.14919850578588456
sg13
F-0.20328460943412696
sg14
F-0.24766727858776305
sg15
F-0.2621238963555657
sg16
F-0.5259442492721301
sg17
F-0.3109308693781165
sg18
I00
sg19
F-1.8624580532189177
sg20
F0.31079801176780747
sg21
F-0.9662695378313737
sg22
F-0.3887048686189728
sg23
F3.1497252127150577
ssS'BROWN MICHAEL'
p242
(dp243
g3
F-0.025243531535493358
sg4
F0.09721132601933394
sg5
F-0.32280156308388
sg6
F-0.25133023049995545
sg7
F-0.08556846643359434
sg8
F-0.30467160009234656
sg9
F-0.1904108853781678
sg10
F-0.4565407952264736
sg11
F0.04142112771753375
sg12
F-0.14919850578588456
sg13
F-0.20328460943412696
sg14
F-0.2276556621061277
sg15
F-0.2621238963555657
sg16
F-0.3507551506523684
sg17
F-0.29839192004899334
sg18
I00
sg19
F0.5369248441712194
sg20
F0.31079801176780747
sg21
F0.19405283069150872
sg22
F-0.3887048686189728
sg23
F-0.31897230514566277
ssS'BADUM JAMES P'
p244
(dp245
g3
F-0.025243531535493358
sg4
F-0.5457262678594518
sg5
F0.039371755421938735
sg6
F-0.23627362905707827
sg7
F-0.08556846643359434
sg8
F-0.30467160009234656
sg9
F-0.1904108853781678
sg10
F-0.435204573569112
sg11
F-0.6484995308276384
sg12
F-0.14919850578588456
sg13
F-0.49787564945928237
sg14
F-0.24766727858776305
sg15
F-0.2621238963555657
sg16
F-0.5259442492721301
sg17
F-0.3109308693781165
sg18
I00
sg19
F-1.8624580532189177
sg20
F0.31079801176780747
sg21
F-0.9160272763181009
sg22
F-0.3887048686189728
sg23
F-0.31897230514566277
ssS'HUGHES JAMES A'
p246
(dp247
g3
F-0.025243531535493358
sg4
F-0.24787834123401012
sg5
F-0.32280156308388
sg6
F-0.25688581321559156
sg7
F-0.08556846643359434
sg8
F-0.30467160009234656
sg9
F-0.1904108853781678
sg10
F-0.29588094032510803
sg11
F-0.11937338890817034
sg12
F-0.14919850578588456
sg13
F-0.3907061108102427
sg14
F-0.23248605229135003
sg15
F-0.2621238963555657
sg16
F-0.054281291449694825
sg17
F-0.24823612273250079
sg18
I00
sg19
F0.5369248441712194
sg20
F0.31079801176780747
sg21
F-0.6002741730885215
sg22
F-0.2701778264164265
sg23
F-0.31897230514566277
ssS'REYNOLDS LAWRENCE'
p248
(dp249
g3
F-1.4405320742680983
sg4
F-0.5457262678594518
sg5
F-0.1248272926138722
sg6
F-0.21230469263137017
sg7
F-0.08556846643359434
sg8
F-0.7515817773322183
sg9
F0.9045966116586028
sg10
F0.20656158114812057
sg11
F-0.6484995308276384
sg12
F-0.8296546558646581
sg13
F0.34345596292271524
sg14
F-0.24766727858776305
sg15
F-0.08395292515580056
sg16
F-0.5259442492721301
sg17
F-0.3109308693781165
sg18
I00
sg19
F-1.8624580532189177
sg20
F0.019392754928768213
sg21
F-0.7967109939110377
sg22
F-0.3510320007859168
sg23
F-0.31897230514566277
ssS'DIMICHELE RICHARD G'
p250
(dp251
g3
F-0.13592472027858532
sg4
F-0.5457262678594518
sg5
F-0.32280156308388
sg6
F0.010831658037449819
sg7
F-0.08556846643359434
sg8
F0.05285654169955082
sg9
F-0.1904108853781678
sg10
F0.8696683287040239
sg11
F-0.6484995308276384
sg12
F0.09080647125183522
sg13
F1.2124294605380916
sg14
F-0.24766727858776305
sg15
F0.0686876220821498
sg16
F-0.5259442492721301
sg17
F-0.3109308693781165
sg18
I00
sg19
F0.5369248441712194
sg20
F0.31079801176780747
sg21
F-0.1325582238926033
sg22
F-0.3887048686189728
sg23
F-0.31897230514566277
ssS'BHATNAGAR SANJAY'
p252
(dp253
g3
F-0.025243531535493358
sg4
F-0.3360629237394279
sg5
F-0.32280156308388
sg6
F1.4905271974807317
sg7
F-0.08556846643359434
sg8
F-0.30467160009234656
sg9
F11.27323097495714
sg10
F-0.4565407952264736
sg11
F-0.23716472085490706
sg12
F-0.14919850578588456
sg13
F0.007992536477243451
sg14
F-0.23593633099508027
sg15
F-0.14070606293107213
sg16
F-0.5259442492721301
sg17
F-0.29839192004899334
sg18
I00
sg19
F0.5369248441712194
sg20
F0.31079801176780747
sg21
F-0.6002741730885215
sg22
F-1.751968307668387
sg23
F4.114460210061072
ssS'CARTER REBECCA C'
p254
(dp255
g3
F-0.14277711285301692
sg4
F-0.43099632633454604
sg5
F-0.32280156308388
sg6
F-0.20291175565171043
sg7
F-0.08556846643359434
sg8
F-0.5728177064362696
sg9
F0.7935499292861827
sg10
F-0.4565407952264736
sg11
F-0.4867701623610873
sg12
F-0.9685068659494966
sg13
F-0.20328460943412696
sg14
F-0.24559711136552492
sg15
F-0.2621238963555657
sg16
F-0.13513779850496943
sg17
F-0.2231582240742545
sg18
I00
sg19
F0.5369248441712194
sg20
F0.08634602674010587
sg21
F-0.6002741730885215
sg22
F-0.2982003170449509
sg23
F-0.31897230514566277
ssS'BUCHANAN HAROLD G'
p256
(dp257
g3
F-0.2393125555359186
sg4
F-0.08185736702738175
sg5
F-0.32280156308388
sg6
F-0.13766927145270175
sg7
F-0.08556846643359434
sg8
F-0.3940536355403209
sg9
F-0.1904108853781678
sg10
F-0.3127001127339527
sg11
F-0.6484995308276384
sg12
F-0.5757815473212341
sg13
F-0.3755089805018643
sg14
F-0.16969097988345974
sg15
F-0.2615270812499648
sg16
F-0.5259442492721301
sg17
F-0.3109308693781165
sg18
I00
sg19
F0.5369248441712194
sg20
F0.31079801176780747
sg21
F-0.9859738111600234
sg22
F-0.3572439099989533
sg23
F-0.31897230514566277
ssS'YEAP SOON'
p258
(dp259
g3
F-0.025243531535493358
sg4
F-0.5457262678594518
sg5
F-0.32280156308388
sg6
F-0.250673486910311
sg7
F-0.08556846643359434
sg8
F-0.30467160009234656
sg9
F-0.1904108853781678
sg10
F-0.4457373396728095
sg11
F-0.6484995308276384
sg12
F-0.14919850578588456
sg13
F-0.5119003040698074
sg14
F-0.24766727858776305
sg15
F-0.2621238963555657
sg16
F-0.5259442492721301
sg17
F-0.3109308693781165
sg18
I00
sg19
F-1.8624580532189177
sg20
F0.31079801176780747
sg21
F0.334842650822045
sg22
F-0.3887048686189728
sg23
F-0.31897230514566277
ssS'MURRAY JULIA H'
p260
(dp261
g3
F-0.37043193255004253
sg4
F0.41485579157456326
sg5
F-0.32280156308388
sg6
F-0.16507896091804497
sg7
F-0.08556846643359434
sg8
F-0.48343567098829526
sg9
F-0.1904108853781678
sg10
F-0.38021770302815344
sg11
F-0.300734646032511
sg12
F-0.8830593520511345
sg13
F-0.4671224677105297
sg14
F-0.2248954391431435
sg15
F-0.2623095721661971
sg16
F-0.3777073196707933
sg17
F-0.2858529707198702
sg18
I00
sg19
F0.5369248441712194
sg20
F0.31079801176780747
sg21
F0.39502187674459993
sg22
F-0.35327871284657136
sg23
F-0.31897230514566277
ssS'GARLAND C KEVIN'
p262
(dp263
g3
F-0.351799584201588
sg4
F-0.47733822428382167
sg5
F-0.32280156308388
sg6
F-0.07980347958234235
sg7
F-0.08556846643359434
sg8
F-0.0812165114724107
sg9
F-0.1904108853781678
sg10
F-0.33186078126413
sg11
F-0.5035974954963354
sg12
F-0.4553022616748214
sg13
F-0.41629837314691437
sg14
F-0.22558549488388954
sg15
F-0.20883140202225234
sg16
F-0.39118340418000574
sg17
F0.027620762508208326
sg18
I00
sg19
F0.5369248441712194
sg20
F0.31079801176780747
sg21
F0.17265200246371332
sg22
F-0.32186268846776495
sg23
F-0.31897230514566277
ssS'DODSON KEITH'
p264
(dp265
g3
F-0.4283937945611438
sg4
F-0.49218562848116243
sg5
F-0.32280156308388
sg6
F-0.22073122503119152
sg7
F-0.08556846643359434
sg8
F-0.7783963879666107
sg9
F-0.1904108853781678
sg10
F-0.4565407952264736
sg11
F-0.5634280133105508
sg12
F-0.14919850578588456
sg13
F-0.20328460943412696
sg14
F-0.24628716710627097
sg15
F-0.2619170004522907
sg16
F-0.39118340418000574
sg17
F-0.27331402139074706
sg18
I00
sg19
F0.5369248441712194
sg20
F0.31079801176780747
sg21
F-0.3179189648735538
sg22
F-0.3887048686189728
sg23
F-0.31897230514566277
ssS'YEAGER F SCOTT'
p266
(dp267
g3
F-0.8665549540702538
sg4
F-0.5457262678594518
sg5
F-0.32280156308388
sg6
F-0.2161683889949612
sg7
F-0.08556846643359434
sg8
F-0.30467160009234656
sg9
F-0.1904108853781678
sg10
F1.4471460628453783
sg11
F-0.6484995308276384
sg12
F-0.14919850578588456
sg13
F1.2376071851349266
sg14
F-0.24766727858776305
sg15
F-0.131788318997605
sg16
F-0.5259442492721301
sg17
F-0.3109308693781165
sg18
I01
sg19
F0.5369248441712194
sg20
F0.31079801176780747
sg21
F0.3069706774789366
sg22
F1.3338637470959522
sg23
F-0.31897230514566277
ssS'HIRKO JOSEPH'
p268
(dp269
g3
F-0.025243531535493358
sg4
F-0.5457262678594518
sg5
F-0.17771736093311402
sg6
F-0.24660391516769728
sg7
F-0.08556846643359434
sg8
F-0.30467160009234656
sg9
F-0.1904108853781678
sg10
F4.5039465029126955
sg11
F-0.6484995308276384
sg12
F-0.14919850578588456
sg13
F6.078733688950226
sg14
F-0.24766727858776305
sg15
F-0.26007615741545964
sg16
F-0.5259442492721301
sg17
F-0.3109308693781165
sg18
I01
sg19
F0.5369248441712194
sg20
F0.31079801176780747
sg21
F0.8893979743556654
sg22
F-0.3887048686189728
sg23
F-0.31897230514566277
ssS'DIETRICH JANET R'
p270
(dp271
g3
F-0.22473284794394616
sg4
F0.5858259005136386
sg5
F-0.32280156308388
sg6
F-0.09744081538927787
sg7
F-0.08556846643359434
sg8
F-0.30467160009234656
sg9
F-0.1904108853781678
sg10
F-0.17499462605239904
sg11
F1.1080870781240941
sg12
F-0.14579085893161786
sg13
F-0.21931792897434452
sg14
F-0.21247443580971467
sg15
F-0.2621831357808624
sg16
F3.5842615260376625
sg17
F-0.1353855787703925
sg18
I00
sg19
F0.5369248441712194
sg20
F0.31079801176780747
sg21
F-0.9162938778022524
sg22
F-0.2943224920282611
sg23
F-0.31897230514566277
ssS'DERRICK JR. JAMES V'
p272
(dp273
g3
F1.471041831290393
sg4
F0.40990665684211636
sg5
F-0.32280156308388
sg6
F-0.1946107156575536
sg7
F-0.08556846643359434
sg8
F-0.1259075291963979
sg9
F-0.1904108853781678
sg10
F0.9529038775083413
sg11
F0.6397263058596885
sg12
F-0.2695462022608938
sg13
F1.3504271986859948
sg14
F0.371312720861441
sg15
F-0.2559859845584084
sg16
F0.3365251593174658
sg17
F-0.060151882795653665
sg18
I00
sg19
F0.5369248441712194
sg20
F-1.7856546645770524
sg21
F0.23855104204624528
sg22
F0.44075775851539833
sg23
F-0.31897230514566277
ssS'FREVERT MARK A'
p274
(dp275
g3
F5.450588067185298
sg4
F0.9021206020509278
sg5
F8.078530899082379
sg6
F1.6936033044635197
sg7
F0.15109596535856504
sg8
F0.9466768961792944
sg9
F-0.1904108853781678
sg10
F1.890323460545101
sg11
F2.114922510716439
sg12
F1.6667132611290514
sg13
F1.6956823816351614
sg14
F-0.24145677692104864
sg15
F6.304682224120252
sg16
F2.7352682019572794
sg17
F-0.23569717340337765
sg18
I00
sg19
F0.5369248441712194
sg20
F-5.25422812431159
sg21
F1.1077445898757206
sg22
F1.6396467505138557
sg23
F-0.31897230514566277
ssS'PAI LOU L'
p276
(dp277
g3
F-0.14228715628487576
sg4
F-0.5457262678594518
sg5
F-0.32280156308388
sg6
F0.09621533417695512
sg7
F-0.08556846643359434
sg8
F0.05285654169955082
sg9
F-0.1904108853781678
sg10
F3.379074151982803
sg11
F-0.6484995308276384
sg12
F-0.14919850578588456
sg13
F2.7585737453316566
sg14
F-0.24766727858776305
sg15
F1.3549506110373482
sg16
F-0.5259442492721301
sg17
F-0.3109308693781165
sg18
I00
sg19
F0.5369248441712194
sg20
F0.31079801176780747
sg21
F-0.2238086409680843
sg22
F3.7690784445248804
sg23
F-0.31897230514566277
ssS'BAY FRANKLIN R'
p278
(dp279
g3
F-0.2977293772174367
sg4
F-0.5457262678594518
sg5
F0.14420361248198416
sg6
F-0.16332636337515138
sg7
F-0.08556846643359434
sg8
F-0.48343567098829526
sg9
F0.9428108120820506
sg10
F-0.4667423229242908
sg11
F-0.6484995308276384
sg12
F-0.14919850578588456
sg13
F-0.20328460943412696
sg14
F-0.24766727858776305
sg15
F-0.2625403406736961
sg16
F-0.5259442492721301
sg17
F-0.3109308693781165
sg18
I00
sg19
F0.5369248441712194
sg20
F0.016660206206066137
sg21
F2.1294341866398376
sg22
F-0.37883481290184384
sg23
F-0.31897230514566277
ssS'HAYSLETT RODERICK J'
p280
(dp281
g3
F-0.025243531535493358
sg4
F0.620469843640767
sg5
F-0.32280156308388
sg6
F-0.25688581321559156
sg7
F-0.08556846643359434
sg8
F-0.30467160009234656
sg9
F-0.1904108853781678
sg10
F-0.42082079673194717
sg11
F-0.13620072204341843
sg12
F-0.14919850578588456
sg13
F-0.20328460943412696
sg14
F0.4762011934548402
sg15
F-0.2621238963555657
sg16
F-0.054281291449694825
sg17
F0.1655492051285629
sg18
I00
sg19
F0.5369248441712194
sg20
F0.31079801176780747
sg21
F-0.6002741730885215
sg22
F-0.27854807701573187
sg23
F-0.31897230514566277
ssS'FUGH JOHN L'
p282
(dp283
g3
F-0.025243531535493358
sg4
F-0.5457262678594518
sg5
F-0.12582317917250338
sg6
F-0.25118291824357625
sg7
F-0.08556846643359434
sg8
F-0.30467160009234656
sg9
F-0.1904108853781678
sg10
F-0.4483891896671003
sg11
F-0.6484995308276384
sg12
F-0.14919850578588456
sg13
F-0.5154313119629566
sg14
F-0.24766727858776305
sg15
F-0.2621238963555657
sg16
F-0.5259442492721301
sg17
F-0.3109308693781165
sg18
I00
sg19
F-1.8624580532189177
sg20
F0.31079801176780747
sg21
F-0.6002741730885215
sg22
F-0.3887048686189728
sg23
F-0.31897230514566277
ssS'FALLON JAMES B'
p284
(dp285
g3
F0.15664934469714628
sg4
F0.2182401662946267
sg5
F-0.32280156308388
sg6
F0.1587305631490755
sg7
F-0.08556846643359434
sg8
F1.3935870734191662
sg9
F-0.1904108853781678
sg10
F-0.09933886753396086
sg11
F0.8295012295516533
sg12
F-0.456937727090836
sg13
F-0.3507632546729092
sg14
F-0.2041937669207621
sg15
F0.09237631883660666
sg16
F0.04005130011479222
sg17
F0.15301025579943975
sg18
I00
sg19
F0.5369248441712194
sg20
F0.31079801176780747
sg21
F1.3243461774995118
sg22
F0.24342754042006606
sg23
F-0.31897230514566277
ssS'KOENIG MARK E'
p286
(dp287
g3
F0.19415202029858097
sg4
F0.49674147532959406
sg5
F-0.32280156308388
sg6
F-0.07743472563325796
sg7
F-0.08556846643359434
sg8
F-0.21528956464437224
sg9
F-0.1904108853781678
sg10
F-0.16609554848914043
sg11
F1.4530474073966801
sg12
F-0.5839930534068667
sg13
F-0.4086476404768435
sg14
F-0.21385454729120676
sg15
F-0.12957081931635023
sg16
F0.18828822971612902
sg17
F-0.12284662944126937
sg18
I01
sg19
F0.5369248441712194
sg20
F0.31079801176780747
sg21
F2.077931627201485
sg22
F0.1716206258841584
sg23
F-0.31897230514566277
ssS'SAVAGE FRANK'
p288
(dp289
g3
F-0.025243531535493358
sg4
F-0.5457262678594518
sg5
F-0.32280156308388
sg6
F-0.25647858470639906
sg7
F-0.08556846643359434
sg8
F-0.30467160009234656
sg9
F-0.1904108853781678
sg10
F-0.4565407952264736
sg11
F-0.6484995308276384
sg12
F-0.14919850578588456
sg13
F-0.20328460943412696
sg14
F-0.24766727858776305
sg15
F-0.2621238963555657
sg16
F-0.5259442492721301
sg17
F-0.3109308693781165
sg18
I00
sg19
F-1.8624580532189177
sg20
F0.1504685046278643
sg21
F-0.6002741730885215
sg22
F-0.3887048686189728
sg23
F3.691801851995531
ssS'IZZO LAWRENCE L'
p290
(dp291
g3
F-1.3784125808073417
sg4
F-0.3482107999008885
sg5
F-0.32280156308388
sg6
F-0.033096902037315926
sg7
F-0.08556846643359434
sg8
F-0.30467160009234656
sg9
F-0.1904108853781678
sg10
F0.46528516512407747
sg11
F-0.2614708687169321
sg12
F-0.5626311749322762
sg13
F-0.0867104748538038
sg14
F-0.24283688840254072
sg15
F1.1111600400193997
sg16
F-0.14861388301418188
sg17
F-0.24823612273250079
sg18
I00
sg19
F0.5369248441712194
sg20
F0.31079801176780747
sg21
F-0.31963975627125873
sg22
F1.3731073162940792
sg23
F-0.31897230514566277
ssS'TILNEY ELIZABETH A'
p292
(dp293
g3
F-0.24406513424688803
sg4
F-0.3644079681161693
sg5
F-0.32280156308388
sg6
F-0.21174868213492126
sg7
F-0.08556846643359434
sg8
F-0.5728177064362696
sg9
F-0.1904108853781678
sg10
F-0.28784314737537975
sg11
F-0.3156922754860649
sg12
F-0.6267168103560479
sg13
F-0.42599808200895006
sg14
F-0.24283688840254072
sg15
F-0.1281587989850249
sg16
F-0.39118340418000574
sg17
F-0.17300242675776195
sg18
I00
sg19
F0.5369248441712194
sg20
F-0.6050470811548874
sg21
F-0.6002741730885215
sg22
F-0.16365172150320342
sg23
F-0.31897230514566277
ssS'MARTIN AMANDA K'
p294
(dp295
g3
F0.4709144868824423
sg4
F0.11340849423461476
sg5
F-0.08099670395783726
sg6
F0.6935629159955258
sg7
F-0.08556846643359434
sg8
F-0.30467160009234656
sg9
F-0.1904108853781678
sg10
F-0.14177057208546612
sg11
F-0.22407679508304743
sg12
F7.6966127277650696
sg13
F-0.10716057221592219
sg14
F-0.09723512710512482
sg15
F2.229392609546887
sg16
F-0.4181355731984306
sg17
F-0.3109308693781165
sg18
I00
sg19
F0.5369248441712194
sg20
F0.31079801176780747
sg21
F-0.8015098206257643
sg22
F-0.3887048686189728
sg23
F-0.31897230514566277
ssS'BUY RICHARD B'
p296
(dp297
g3
F0.33833923892298456
sg4
F1.0137010942006401
sg5
F0.6448862231713786
sg6
F0.009424221138244405
sg7
F-0.08556846643359434
sg8
F-0.03652549374842353
sg9
F-0.1904108853781678
sg10
F0.08070053875425363
sg11
F1.5110082215292016
sg12
F0.21897774209937854
sg13
F-0.00530306632042248
sg14
F0.4706807475288718
sg15
F0.09157260782773081
sg16
F1.5763249341650099
sg17
F0.5793345329896266
sg18
I00
sg19
F0.5369248441712194
sg20
F-0.8046380348419784
sg21
F-0.6002741730885215
sg22
F-0.001456585151081089
sg23
F-0.31897230514566277
ssS'GRAMM WENDY L'
p298
(dp299
g3
F-0.025243531535493358
sg4
F-0.5457262678594518
sg5
F-0.32280156308388
sg6
F-0.24341584278271106
sg7
F-0.08556846643359434
sg8
F-0.30467160009234656
sg9
F-0.1904108853781678
sg10
F-0.4565407952264736
sg11
F-0.6484995308276384
sg12
F-0.14919850578588456
sg13
F-0.20328460943412696
sg14
F-0.24766727858776305
sg15
F-0.2621238963555657
sg16
F-0.5259442492721301
sg17
F-0.3109308693781165
sg18
I00
sg19
F-1.8624580532189177
sg20
F0.31079801176780747
sg21
F-0.6002741730885215
sg22
F-0.3887048686189728
sg23
F3.5026432945510777
ssS'CAUSEY RICHARD A'
p300
(dp301
g3
F0.9307877217397513
sg4
F0.2798793897805565
sg5
F-0.32280156308388
sg6
F-0.04562782749591737
sg7
F-0.08556846643359434
sg8
F0.05285654169955082
sg9
F-0.1904108853781678
sg10
F-0.07187101176892101
sg11
F0.811739044575558
sg12
F-0.49854553950850455
sg13
F-0.20328460943412696
sg14
F-0.22213521618015933
sg15
F0.009630335913995489
sg16
F0.2556686522621912
sg17
F-0.16046347742863878
sg18
I01
sg19
F0.5369248441712194
sg20
F-0.03888829643903964
sg21
F-0.2570853534898998
sg22
F0.7975770731031312
sg23
F-0.31897230514566277
ssS'TAYLOR MITCHELL S'
p302
(dp303
g3
F-0.11894422550272109
sg4
F-0.33156371034629434
sg5
F0.10173561279958024
sg6
F-0.13337019558080965
sg7
F-0.08556846643359434
sg8
F-0.30467160009234656
sg9
F-0.1904108853781678
sg10
F0.12936279562750985
sg11
F-0.3895455709129871
sg12
F-0.14919850578588456
sg13
F0.13232367887362786
sg14
F-0.23593633099508027
sg15
F-0.2621238963555657
sg16
F-0.5259442492721301
sg17
F-0.3109308693781165
sg18
I00
sg19
F0.5369248441712194
sg20
F0.31079801176780747
sg21
F-0.6002741730885215
sg22
F-0.17013922739568021
sg23
F-0.31897230514566277
ssS'DONAHUE JR JEFFREY M'
p304
(dp305
g3
F-0.025243531535493358
sg4
F-0.18218982569426015
sg5
F-0.32280156308388
sg6
F-0.15789242915365495
sg7
F-0.08556846643359434
sg8
F-0.1259075291963979
sg9
F-0.1904108853781678
sg10
F-0.3019368072900922
sg11
F0.05170449796685204
sg12
F-0.14919850578588456
sg13
F-0.38834477622773006
sg14
F-0.2407667211803026
sg15
F-0.26181355250065325
sg16
F2.007559638459808
sg17
F-0.17300242675776195
sg18
I00
sg19
F0.5369248441712194
sg20
F-0.14712453469353995
sg21
F1.332683533003885
sg22
F-0.2943224920282611
sg23
F-0.31897230514566277
ssS'GLISAN JR BEN F'
p306
(dp307
g3
F-0.05062328176520634
sg4
F-0.1785904549797533
sg5
F-0.32280156308388
sg6
F-0.1130629240511948
sg7
F-0.08556846643359434
sg8
F-0.30467160009234656
sg9
F-0.1904108853781678
sg10
F-0.3509008375692922
sg11
F0.14705938573325794
sg12
F-0.9753033612049724
sg13
F-0.47051766760778857
sg14
F-0.24490705562477888
sg15
F-0.08549491855456784
sg16
F0.17481214520691657
sg17
F-0.23569717340337765
sg18
I01
sg19
F0.5369248441712194
sg20
F0.31079801176780747
sg21
F2.052749905198451
sg22
F-0.25500503096680593
sg23
F-0.31897230514566277
ss.